
bufbomb:     file format elf32-i386


Disassembly of section bstack:

55586000 <_reserved>:
	...

Disassembly of section .interp:

08048134 <.interp>:
 8048134:	2f                   	das    
 8048135:	6c                   	insb   (%dx),%es:(%edi)
 8048136:	69 62 2f 6c 64 2d 6c 	imul   $0x6c2d646c,0x2f(%edx),%esp
 804813d:	69 6e 75 78 2e 73 6f 	imul   $0x6f732e78,0x75(%esi),%ebp
 8048144:	2e 32 00             	xor    %cs:(%eax),%al

Disassembly of section .note.ABI-tag:

08048148 <.note.ABI-tag>:
 8048148:	04 00                	add    $0x0,%al
 804814a:	00 00                	add    %al,(%eax)
 804814c:	10 00                	adc    %al,(%eax)
 804814e:	00 00                	add    %al,(%eax)
 8048150:	01 00                	add    %eax,(%eax)
 8048152:	00 00                	add    %al,(%eax)
 8048154:	47                   	inc    %edi
 8048155:	4e                   	dec    %esi
 8048156:	55                   	push   %ebp
 8048157:	00 00                	add    %al,(%eax)
 8048159:	00 00                	add    %al,(%eax)
 804815b:	00 02                	add    %al,(%edx)
 804815d:	00 00                	add    %al,(%eax)
 804815f:	00 06                	add    %al,(%esi)
 8048161:	00 00                	add    %al,(%eax)
 8048163:	00 08                	add    %cl,(%eax)
 8048165:	00 00                	add    %al,(%eax)
	...

Disassembly of section .hash:

08048168 <.hash>:
 8048168:	25 00 00 00 27       	and    $0x27000000,%eax
 804816d:	00 00                	add    %al,(%eax)
 804816f:	00 24 00             	add    %ah,(%eax,%eax,1)
 8048172:	00 00                	add    %al,(%eax)
 8048174:	01 00                	add    %eax,(%eax)
 8048176:	00 00                	add    %al,(%eax)
 8048178:	15 00 00 00 1d       	adc    $0x1d000000,%eax
 804817d:	00 00                	add    %al,(%eax)
 804817f:	00 22                	add    %ah,(%edx)
	...
 804818d:	00 00                	add    %al,(%eax)
 804818f:	00 09                	add    %cl,(%ecx)
 8048191:	00 00                	add    %al,(%eax)
 8048193:	00 14 00             	add    %dl,(%eax,%eax,1)
 8048196:	00 00                	add    %al,(%eax)
 8048198:	11 00                	adc    %eax,(%eax)
	...
 80481a6:	00 00                	add    %al,(%eax)
 80481a8:	0d 00 00 00 1c       	or     $0x1c000000,%eax
 80481ad:	00 00                	add    %al,(%eax)
 80481af:	00 1b                	add    %bl,(%ebx)
 80481b1:	00 00                	add    %al,(%eax)
 80481b3:	00 00                	add    %al,(%eax)
 80481b5:	00 00                	add    %al,(%eax)
 80481b7:	00 1f                	add    %bl,(%edi)
 80481b9:	00 00                	add    %al,(%eax)
 80481bb:	00 20                	add    %ah,(%eax)
 80481bd:	00 00                	add    %al,(%eax)
 80481bf:	00 00                	add    %al,(%eax)
 80481c1:	00 00                	add    %al,(%eax)
 80481c3:	00 21                	add    %ah,(%ecx)
 80481c5:	00 00                	add    %al,(%eax)
 80481c7:	00 00                	add    %al,(%eax)
 80481c9:	00 00                	add    %al,(%eax)
 80481cb:	00 19                	add    %bl,(%ecx)
 80481cd:	00 00                	add    %al,(%eax)
 80481cf:	00 00                	add    %al,(%eax)
 80481d1:	00 00                	add    %al,(%eax)
 80481d3:	00 25 00 00 00 0a    	add    %ah,0xa000000
 80481d9:	00 00                	add    %al,(%eax)
 80481db:	00 05 00 00 00 1e    	add    %al,0x1e000000
 80481e1:	00 00                	add    %al,(%eax)
 80481e3:	00 26                	add    %ah,(%esi)
	...
 80481ed:	00 00                	add    %al,(%eax)
 80481ef:	00 16                	add    %dl,(%esi)
 80481f1:	00 00                	add    %al,(%eax)
 80481f3:	00 00                	add    %al,(%eax)
 80481f5:	00 00                	add    %al,(%eax)
 80481f7:	00 1a                	add    %bl,(%edx)
 80481f9:	00 00                	add    %al,(%eax)
 80481fb:	00 00                	add    %al,(%eax)
 80481fd:	00 00                	add    %al,(%eax)
 80481ff:	00 23                	add    %ah,(%ebx)
	...
 8048211:	00 00                	add    %al,(%eax)
 8048213:	00 03                	add    %al,(%ebx)
	...
 804822d:	00 00                	add    %al,(%eax)
 804822f:	00 08                	add    %cl,(%eax)
	...
 8048241:	00 00                	add    %al,(%eax)
 8048243:	00 0f                	add    %cl,(%edi)
	...
 804824d:	00 00                	add    %al,(%eax)
 804824f:	00 02                	add    %al,(%edx)
	...
 8048259:	00 00                	add    %al,(%eax)
 804825b:	00 0c 00             	add    %cl,(%eax,%eax,1)
 804825e:	00 00                	add    %al,(%eax)
 8048260:	10 00                	adc    %al,(%eax)
 8048262:	00 00                	add    %al,(%eax)
 8048264:	07                   	pop    %es
	...
 804826d:	00 00                	add    %al,(%eax)
 804826f:	00 0b                	add    %cl,(%ebx)
 8048271:	00 00                	add    %al,(%eax)
 8048273:	00 18                	add    %bl,(%eax)
 8048275:	00 00                	add    %al,(%eax)
 8048277:	00 00                	add    %al,(%eax)
 8048279:	00 00                	add    %al,(%eax)
 804827b:	00 0e                	add    %cl,(%esi)
 804827d:	00 00                	add    %al,(%eax)
 804827f:	00 04 00             	add    %al,(%eax,%eax,1)
 8048282:	00 00                	add    %al,(%eax)
 8048284:	13 00                	adc    (%eax),%eax
 8048286:	00 00                	add    %al,(%eax)
 8048288:	17                   	pop    %ss
 8048289:	00 00                	add    %al,(%eax)
 804828b:	00 12                	add    %dl,(%edx)
 804828d:	00 00                	add    %al,(%eax)
 804828f:	00 06                	add    %al,(%esi)
	...

Disassembly of section .dynsym:

080482a0 <.dynsym>:
	...
 80482b0:	87 00                	xchg   %eax,(%eax)
 80482b2:	00 00                	add    %al,(%eax)
 80482b4:	00 00                	add    %al,(%eax)
 80482b6:	00 00                	add    %al,(%eax)
 80482b8:	1d 00 00 00 12       	sbb    $0x12000000,%eax
 80482bd:	00 00                	add    %al,(%eax)
 80482bf:	00 3c 00             	add    %bh,(%eax,%eax,1)
 80482c2:	00 00                	add    %al,(%eax)
 80482c4:	00 00                	add    %al,(%eax)
 80482c6:	00 00                	add    %al,(%eax)
 80482c8:	31 00                	xor    %eax,(%eax)
 80482ca:	00 00                	add    %al,(%eax)
 80482cc:	12 00                	adc    (%eax),%al
 80482ce:	00 00                	add    %al,(%eax)
 80482d0:	44                   	inc    %esp
 80482d1:	00 00                	add    %al,(%eax)
 80482d3:	00 00                	add    %al,(%eax)
 80482d5:	00 00                	add    %al,(%eax)
 80482d7:	00 60 00             	add    %ah,0x0(%eax)
 80482da:	00 00                	add    %al,(%eax)
 80482dc:	12 00                	adc    (%eax),%al
 80482de:	00 00                	add    %al,(%eax)
 80482e0:	53                   	push   %ebx
 80482e1:	00 00                	add    %al,(%eax)
 80482e3:	00 00                	add    %al,(%eax)
 80482e5:	00 00                	add    %al,(%eax)
 80482e7:	00 6c 00 00          	add    %ch,0x0(%eax,%eax,1)
 80482eb:	00 12                	add    %dl,(%edx)
 80482ed:	00 00                	add    %al,(%eax)
 80482ef:	00 74 00 00          	add    %dh,0x0(%eax,%eax,1)
 80482f3:	00 00                	add    %al,(%eax)
 80482f5:	00 00                	add    %al,(%eax)
 80482f7:	00 5c 00 00          	add    %bl,0x0(%eax,%eax,1)
 80482fb:	00 12                	add    %dl,(%edx)
 80482fd:	00 00                	add    %al,(%eax)
 80482ff:	00 6d 00             	add    %ch,0x0(%ebp)
 8048302:	00 00                	add    %al,(%eax)
 8048304:	00 00                	add    %al,(%eax)
 8048306:	00 00                	add    %al,(%eax)
 8048308:	37                   	aaa    
 8048309:	00 00                	add    %al,(%eax)
 804830b:	00 12                	add    %dl,(%edx)
 804830d:	00 00                	add    %al,(%eax)
 804830f:	00 fa                	add    %bh,%dl
 8048311:	00 00                	add    %al,(%eax)
 8048313:	00 00                	add    %al,(%eax)
 8048315:	00 00                	add    %al,(%eax)
 8048317:	00 67 00             	add    %ah,0x0(%edi)
 804831a:	00 00                	add    %al,(%eax)
 804831c:	12 00                	adc    (%eax),%al
 804831e:	00 00                	add    %al,(%eax)
 8048320:	5b                   	pop    %ebx
 8048321:	00 00                	add    %al,(%eax)
 8048323:	00 00                	add    %al,(%eax)
 8048325:	00 00                	add    %al,(%eax)
 8048327:	00 de                	add    %bl,%dh
 8048329:	00 00                	add    %al,(%eax)
 804832b:	00 12                	add    %dl,(%edx)
 804832d:	00 00                	add    %al,(%eax)
 804832f:	00 01                	add    %al,(%ecx)
	...
 8048339:	00 00                	add    %al,(%eax)
 804833b:	00 20                	add    %ah,(%eax)
 804833d:	00 00                	add    %al,(%eax)
 804833f:	00 79 00             	add    %bh,0x0(%ecx)
 8048342:	00 00                	add    %al,(%eax)
 8048344:	00 00                	add    %al,(%eax)
 8048346:	00 00                	add    %al,(%eax)
 8048348:	e7 02                	out    %eax,$0x2
 804834a:	00 00                	add    %al,(%eax)
 804834c:	12 00                	adc    (%eax),%al
 804834e:	00 00                	add    %al,(%eax)
 8048350:	f3 00 00             	repz add %al,(%eax)
 8048353:	00 00                	add    %al,(%eax)
 8048355:	00 00                	add    %al,(%eax)
 8048357:	00 70 00             	add    %dh,0x0(%eax)
 804835a:	00 00                	add    %al,(%eax)
 804835c:	12 00                	adc    (%eax),%al
 804835e:	00 00                	add    %al,(%eax)
 8048360:	80 00 00             	addb   $0x0,(%eax)
 8048363:	00 00                	add    %al,(%eax)
 8048365:	00 00                	add    %al,(%eax)
 8048367:	00 49 00             	add    %cl,0x0(%ecx)
 804836a:	00 00                	add    %al,(%eax)
 804836c:	12 00                	adc    (%eax),%al
 804836e:	00 00                	add    %al,(%eax)
 8048370:	16                   	push   %ss
 8048371:	01 00                	add    %eax,(%eax)
 8048373:	00 00                	add    %al,(%eax)
 8048375:	00 00                	add    %al,(%eax)
 8048377:	00 b2 01 00 00 12    	add    %dh,0x12000001(%edx)
 804837d:	00 00                	add    %al,(%eax)
 804837f:	00 0d 01 00 00 00    	add    %cl,0x1
 8048385:	00 00                	add    %al,(%eax)
 8048387:	00 eb                	add    %ch,%bl
 8048389:	00 00                	add    %al,(%eax)
 804838b:	00 12                	add    %dl,(%edx)
 804838d:	00 00                	add    %al,(%eax)
 804838f:	00 98 00 00 00 00    	add    %bl,0x0(%eax)
 8048395:	00 00                	add    %al,(%eax)
 8048397:	00 70 00             	add    %dh,0x0(%eax)
 804839a:	00 00                	add    %al,(%eax)
 804839c:	12 00                	adc    (%eax),%al
 804839e:	00 00                	add    %al,(%eax)
 80483a0:	1a 00                	sbb    (%eax),%al
 80483a2:	00 00                	add    %al,(%eax)
 80483a4:	3c 9f                	cmp    $0x9f,%al
 80483a6:	04 08                	add    $0x8,%al
 80483a8:	04 00                	add    $0x0,%al
 80483aa:	00 00                	add    %al,(%eax)
 80483ac:	11 00                	adc    %eax,(%eax)
 80483ae:	0f 00 29             	verw   (%ecx)
 80483b1:	00 00                	add    %al,(%eax)
 80483b3:	00 00                	add    %al,(%eax)
 80483b5:	00 00                	add    %al,(%eax)
 80483b7:	00 37                	add    %dh,(%edi)
 80483b9:	00 00                	add    %al,(%eax)
 80483bb:	00 12                	add    %dl,(%edx)
 80483bd:	00 00                	add    %al,(%eax)
 80483bf:	00 01                	add    %al,(%ecx)
 80483c1:	01 00                	add    %eax,(%eax)
 80483c3:	00 00                	add    %al,(%eax)
 80483c5:	00 00                	add    %al,(%eax)
 80483c7:	00 9b 00 00 00 12    	add    %bl,0x12000000(%ebx)
 80483cd:	00 00                	add    %al,(%eax)
 80483cf:	00 9d 00 00 00 00    	add    %bl,0x0(%ebp)
 80483d5:	00 00                	add    %al,(%eax)
 80483d7:	00 49 00             	add    %cl,0x0(%ecx)
 80483da:	00 00                	add    %al,(%eax)
 80483dc:	12 00                	adc    (%eax),%al
 80483de:	00 00                	add    %al,(%eax)
 80483e0:	c4 00                	les    (%eax),%eax
 80483e2:	00 00                	add    %al,(%eax)
 80483e4:	a0 b1 04 08 04       	mov    0x40804b1,%al
 80483e9:	00 00                	add    %al,(%eax)
 80483eb:	00 11                	add    %dl,(%ecx)
 80483ed:	00 18                	add    %bl,(%eax)
 80483ef:	00 a4 00 00 00 00 00 	add    %ah,0x0(%eax,%eax,1)
 80483f6:	00 00                	add    %al,(%eax)
 80483f8:	37                   	aaa    
 80483f9:	00 00                	add    %al,(%eax)
 80483fb:	00 12                	add    %dl,(%edx)
 80483fd:	00 00                	add    %al,(%eax)
 80483ff:	00 cb                	add    %cl,%bl
 8048401:	00 00                	add    %al,(%eax)
 8048403:	00 00                	add    %al,(%eax)
 8048405:	00 00                	add    %al,(%eax)
 8048407:	00 34 00             	add    %dh,(%eax,%eax,1)
 804840a:	00 00                	add    %al,(%eax)
 804840c:	12 00                	adc    (%eax),%al
 804840e:	00 00                	add    %al,(%eax)
 8048410:	30 00                	xor    %al,(%eax)
 8048412:	00 00                	add    %al,(%eax)
 8048414:	00 00                	add    %al,(%eax)
 8048416:	00 00                	add    %al,(%eax)
 8048418:	25 00 00 00 12       	and    $0x12000000,%eax
 804841d:	00 00                	add    %al,(%eax)
 804841f:	00 3d 00 00 00 00    	add    %bh,0x0
 8048425:	00 00                	add    %al,(%eax)
 8048427:	00 36                	add    %dh,(%esi)
 8048429:	00 00                	add    %al,(%eax)
 804842b:	00 12                	add    %dl,(%edx)
 804842d:	00 00                	add    %al,(%eax)
 804842f:	00 ab 00 00 00 00    	add    %ch,0x0(%ebx)
 8048435:	00 00                	add    %al,(%eax)
 8048437:	00 56 00             	add    %dl,0x0(%esi)
 804843a:	00 00                	add    %al,(%eax)
 804843c:	12 00                	adc    (%eax),%al
 804843e:	00 00                	add    %al,(%eax)
 8048440:	f9                   	stc    
 8048441:	00 00                	add    %al,(%eax)
 8048443:	00 00                	add    %al,(%eax)
 8048445:	00 00                	add    %al,(%eax)
 8048447:	00 60 00             	add    %ah,0x0(%eax)
 804844a:	00 00                	add    %al,(%eax)
 804844c:	12 00                	adc    (%eax),%al
 804844e:	00 00                	add    %al,(%eax)
 8048450:	07                   	pop    %es
 8048451:	01 00                	add    %eax,(%eax)
 8048453:	00 00                	add    %al,(%eax)
 8048455:	00 00                	add    %al,(%eax)
 8048457:	00 65 00             	add    %ah,0x0(%ebp)
 804845a:	00 00                	add    %al,(%eax)
 804845c:	12 00                	adc    (%eax),%al
 804845e:	00 00                	add    %al,(%eax)
 8048460:	f2 00 00             	repnz add %al,(%eax)
 8048463:	00 00                	add    %al,(%eax)
 8048465:	00 00                	add    %al,(%eax)
 8048467:	00 61 01             	add    %ah,0x1(%ecx)
 804846a:	00 00                	add    %al,(%eax)
 804846c:	12 00                	adc    (%eax),%al
 804846e:	00 00                	add    %al,(%eax)
 8048470:	e6 00                	out    %al,$0x0
 8048472:	00 00                	add    %al,(%eax)
 8048474:	00 00                	add    %al,(%eax)
 8048476:	00 00                	add    %al,(%eax)
 8048478:	88 00                	mov    %al,(%eax)
 804847a:	00 00                	add    %al,(%eax)
 804847c:	12 00                	adc    (%eax),%al
 804847e:	00 00                	add    %al,(%eax)
 8048480:	67 00 00             	add    %al,(%bx,%si)
 8048483:	00 a4 b1 04 08 04 00 	add    %ah,0x40804(%ecx,%esi,4)
 804848a:	00 00                	add    %al,(%eax)
 804848c:	11 00                	adc    %eax,(%eax)
 804848e:	18 00                	sbb    %al,(%eax)
 8048490:	62 00                	bound  %eax,(%eax)
 8048492:	00 00                	add    %al,(%eax)
 8048494:	00 00                	add    %al,(%eax)
 8048496:	00 00                	add    %al,(%eax)
 8048498:	b4 01                	mov    $0x1,%ah
 804849a:	00 00                	add    %al,(%eax)
 804849c:	12 00                	adc    (%eax),%al
 804849e:	00 00                	add    %al,(%eax)
 80484a0:	45                   	inc    %ebp
 80484a1:	00 00                	add    %al,(%eax)
 80484a3:	00 00                	add    %al,(%eax)
 80484a5:	00 00                	add    %al,(%eax)
 80484a7:	00 17                	add    %dl,(%edi)
 80484a9:	00 00                	add    %al,(%eax)
 80484ab:	00 12                	add    %dl,(%edx)
 80484ad:	00 00                	add    %al,(%eax)
 80484af:	00 b6 00 00 00 00    	add    %dh,0x0(%esi)
 80484b5:	00 00                	add    %al,(%eax)
 80484b7:	00 31                	add    %dh,(%ecx)
 80484b9:	00 00                	add    %al,(%eax)
 80484bb:	00 12                	add    %dl,(%edx)
 80484bd:	00 00                	add    %al,(%eax)
 80484bf:	00 d1                	add    %dl,%cl
 80484c1:	00 00                	add    %al,(%eax)
 80484c3:	00 00                	add    %al,(%eax)
 80484c5:	00 00                	add    %al,(%eax)
 80484c7:	00 38                	add    %bh,(%eax)
 80484c9:	00 00                	add    %al,(%eax)
 80484cb:	00 12                	add    %dl,(%edx)
 80484cd:	00 00                	add    %al,(%eax)
 80484cf:	00 bd 00 00 00 a8    	add    %bh,-0x58000000(%ebp)
 80484d5:	b1 04                	mov    $0x4,%cl
 80484d7:	08 04 00             	or     %al,(%eax,%eax,1)
 80484da:	00 00                	add    %al,(%eax)
 80484dc:	11 00                	adc    %eax,(%eax)
 80484de:	18 00                	sbb    %al,(%eax)
 80484e0:	d8 00                	fadds  (%eax)
 80484e2:	00 00                	add    %al,(%eax)
 80484e4:	00 00                	add    %al,(%eax)
 80484e6:	00 00                	add    %al,(%eax)
 80484e8:	a8 01                	test   $0x1,%al
 80484ea:	00 00                	add    %al,(%eax)
 80484ec:	12 00                	adc    (%eax),%al
 80484ee:	00 00                	add    %al,(%eax)
 80484f0:	4a                   	dec    %edx
 80484f1:	00 00                	add    %al,(%eax)
 80484f3:	00 00                	add    %al,(%eax)
 80484f5:	00 00                	add    %al,(%eax)
 80484f7:	00 50 00             	add    %dl,0x0(%eax)
 80484fa:	00 00                	add    %al,(%eax)
 80484fc:	12 00                	adc    (%eax),%al
 80484fe:	00 00                	add    %al,(%eax)
 8048500:	37                   	aaa    
 8048501:	00 00                	add    %al,(%eax)
 8048503:	00 00                	add    %al,(%eax)
 8048505:	00 00                	add    %al,(%eax)
 8048507:	00 e5                	add    %ah,%ch
 8048509:	00 00                	add    %al,(%eax)
 804850b:	00 12                	add    %dl,(%edx)
 804850d:	00 00                	add    %al,(%eax)
	...

Disassembly of section .dynstr:

08048510 <.dynstr>:
 8048510:	00 5f 5f             	add    %bl,0x5f(%edi)
 8048513:	67 6d                	insl   (%dx),%es:(%di)
 8048515:	6f                   	outsl  %ds:(%esi),(%dx)
 8048516:	6e                   	outsb  %ds:(%esi),(%dx)
 8048517:	5f                   	pop    %edi
 8048518:	73 74                	jae    804858e <_init-0x252>
 804851a:	61                   	popa   
 804851b:	72 74                	jb     8048591 <_init-0x24f>
 804851d:	5f                   	pop    %edi
 804851e:	5f                   	pop    %edi
 804851f:	00 6c 69 62          	add    %ch,0x62(%ecx,%ebp,2)
 8048523:	63 2e                	arpl   %bp,(%esi)
 8048525:	73 6f                	jae    8048596 <_init-0x24a>
 8048527:	2e 36 00 5f 49       	cs add %bl,%cs:%ss:0x49(%edi)
 804852c:	4f                   	dec    %edi
 804852d:	5f                   	pop    %edi
 804852e:	73 74                	jae    80485a4 <_init-0x23c>
 8048530:	64 69 6e 5f 75 73 65 	imul   $0x64657375,%fs:0x5f(%esi),%ebp
 8048537:	64 
 8048538:	00 73 6f             	add    %dh,0x6f(%ebx)
 804853b:	63 6b 65             	arpl   %bp,0x65(%ebx)
 804853e:	74 00                	je     8048540 <_init-0x2a0>
 8048540:	73 74                	jae    80485b6 <_init-0x22a>
 8048542:	72 63                	jb     80485a7 <_init-0x239>
 8048544:	70 79                	jo     80485bf <_init-0x221>
 8048546:	00 65 78             	add    %ah,0x78(%ebp)
 8048549:	69 74 00 73 70 72 69 	imul   $0x6e697270,0x73(%eax,%eax,1),%esi
 8048550:	6e 
 8048551:	74 66                	je     80485b9 <_init-0x227>
 8048553:	00 73 72             	add    %dh,0x72(%ebx)
 8048556:	61                   	popa   
 8048557:	6e                   	outsb  %ds:(%esi),(%dx)
 8048558:	64 00 5f 5f          	add    %bl,%fs:0x5f(%edi)
 804855c:	73 74                	jae    80485d2 <_init-0x20e>
 804855e:	72 64                	jb     80485c4 <_init-0x21c>
 8048560:	75 70                	jne    80485d2 <_init-0x20e>
 8048562:	00 63 6f             	add    %ah,0x6f(%ebx)
 8048565:	6e                   	outsb  %ds:(%esi),(%dx)
 8048566:	6e                   	outsb  %ds:(%esi),(%dx)
 8048567:	65 63 74 00 73       	arpl   %si,%gs:0x73(%eax,%eax,1)
 804856c:	69 67 6e 61 6c 00 70 	imul   $0x70006c61,0x6e(%edi),%esp
 8048573:	75 74                	jne    80485e9 <_init-0x1f7>
 8048575:	73 00                	jae    8048577 <_init-0x269>
 8048577:	73 74                	jae    80485ed <_init-0x1f3>
 8048579:	64 69 6e 00 67 65 74 	imul   $0x70746567,%fs:0x0(%esi),%ebp
 8048580:	70 
 8048581:	69 64 00 6d 6d 61 70 	imul   $0x70616d,0x6d(%eax,%eax,1),%esp
 8048588:	00 
 8048589:	63 61 6c             	arpl   %sp,0x6c(%ecx)
 804858c:	6c                   	insb   (%dx),%es:(%edi)
 804858d:	6f                   	outsl  %ds:(%esi),(%dx)
 804858e:	63 00                	arpl   %ax,(%eax)
 8048590:	6d                   	insl   (%dx),%es:(%edi)
 8048591:	65                   	gs
 8048592:	6d                   	insl   (%dx),%es:(%edi)
 8048593:	73 65                	jae    80485fa <_init-0x1e6>
 8048595:	74 00                	je     8048597 <_init-0x249>
 8048597:	5f                   	pop    %edi
 8048598:	5f                   	pop    %edi
 8048599:	65                   	gs
 804859a:	72 72                	jb     804860e <_init-0x1d2>
 804859c:	6e                   	outsb  %ds:(%esi),(%dx)
 804859d:	6f                   	outsl  %ds:(%esi),(%dx)
 804859e:	5f                   	pop    %edi
 804859f:	6c                   	insb   (%dx),%es:(%edi)
 80485a0:	6f                   	outsl  %ds:(%esi),(%dx)
 80485a1:	63 61 74             	arpl   %sp,0x74(%ecx)
 80485a4:	69 6f 6e 00 72 65 61 	imul   $0x61657200,0x6e(%edi),%ebp
 80485ab:	64 00 67 65          	add    %ah,%fs:0x65(%edi)
 80485af:	74 6f                	je     8048620 <_init-0x1c0>
 80485b1:	70 74                	jo     8048627 <_init-0x1b9>
 80485b3:	00 6d 65             	add    %ch,0x65(%ebp)
 80485b6:	6d                   	insl   (%dx),%es:(%edi)
 80485b7:	63 70 79             	arpl   %si,0x79(%eax)
 80485ba:	00 73 74             	add    %dh,0x74(%ebx)
 80485bd:	72 63                	jb     8048622 <_init-0x1be>
 80485bf:	61                   	popa   
 80485c0:	73 65                	jae    8048627 <_init-0x1b9>
 80485c2:	63 6d 70             	arpl   %bp,0x70(%ebp)
 80485c5:	00 73 73             	add    %dh,0x73(%ebx)
 80485c8:	63 61 6e             	arpl   %sp,0x6e(%ecx)
 80485cb:	66                   	data16
 80485cc:	00 6f 70             	add    %ch,0x70(%edi)
 80485cf:	74 61                	je     8048632 <_init-0x1ae>
 80485d1:	72 67                	jb     804863a <_init-0x1a6>
 80485d3:	00 73 74             	add    %dh,0x74(%ebx)
 80485d6:	64                   	fs
 80485d7:	65                   	gs
 80485d8:	72 72                	jb     804864c <_init-0x194>
 80485da:	00 61 6c             	add    %ah,0x6c(%ecx)
 80485dd:	61                   	popa   
 80485de:	72 6d                	jb     804864d <_init-0x193>
 80485e0:	00 6d 75             	add    %ch,0x75(%ebp)
 80485e3:	6e                   	outsb  %ds:(%esi),(%dx)
 80485e4:	6d                   	insl   (%dx),%es:(%edi)
 80485e5:	61                   	popa   
 80485e6:	70 00                	jo     80485e8 <_init-0x1f8>
 80485e8:	67                   	addr16
 80485e9:	65                   	gs
 80485ea:	74 68                	je     8048654 <_init-0x18c>
 80485ec:	6f                   	outsl  %ds:(%esi),(%dx)
 80485ed:	73 74                	jae    8048663 <_init-0x17d>
 80485ef:	62 79 6e             	bound  %edi,0x6e(%ecx)
 80485f2:	61                   	popa   
 80485f3:	6d                   	insl   (%dx),%es:(%edi)
 80485f4:	65 00 67 65          	add    %ah,%gs:0x65(%edi)
 80485f8:	74 68                	je     8048662 <_init-0x17e>
 80485fa:	6f                   	outsl  %ds:(%esi),(%dx)
 80485fb:	73 74                	jae    8048671 <_init-0x16f>
 80485fd:	6e                   	outsb  %ds:(%esi),(%dx)
 80485fe:	61                   	popa   
 80485ff:	6d                   	insl   (%dx),%es:(%edi)
 8048600:	65 00 66 77          	add    %ah,%gs:0x77(%esi)
 8048604:	72 69                	jb     804866f <_init-0x171>
 8048606:	74 65                	je     804866d <_init-0x173>
 8048608:	00 73 72             	add    %dh,0x72(%ebx)
 804860b:	61                   	popa   
 804860c:	6e                   	outsb  %ds:(%esi),(%dx)
 804860d:	64 6f                	outsl  %fs:(%esi),(%dx)
 804860f:	6d                   	insl   (%dx),%es:(%edi)
 8048610:	00 62 63             	add    %ah,0x63(%edx)
 8048613:	6f                   	outsl  %ds:(%esi),(%dx)
 8048614:	70 79                	jo     804868f <_init-0x151>
 8048616:	00 63 6c             	add    %ah,0x6c(%ebx)
 8048619:	6f                   	outsl  %ds:(%esi),(%dx)
 804861a:	73 65                	jae    8048681 <_init-0x15f>
 804861c:	00 5f 49             	add    %bl,0x49(%edi)
 804861f:	4f                   	dec    %edi
 8048620:	5f                   	pop    %edi
 8048621:	67                   	addr16
 8048622:	65                   	gs
 8048623:	74 63                	je     8048688 <_init-0x158>
 8048625:	00 5f 5f             	add    %bl,0x5f(%edi)
 8048628:	6c                   	insb   (%dx),%es:(%edi)
 8048629:	69 62 63 5f 73 74 61 	imul   $0x6174735f,0x63(%edx),%esp
 8048630:	72 74                	jb     80486a6 <_init-0x13a>
 8048632:	5f                   	pop    %edi
 8048633:	6d                   	insl   (%dx),%es:(%edi)
 8048634:	61                   	popa   
 8048635:	69 6e 00 47 4c 49 42 	imul   $0x42494c47,0x0(%esi),%ebp
 804863c:	43                   	inc    %ebx
 804863d:	5f                   	pop    %edi
 804863e:	32 2e                	xor    (%esi),%ch
 8048640:	30 00                	xor    %al,(%eax)

Disassembly of section .gnu.version:

08048642 <.gnu.version>:
 8048642:	00 00                	add    %al,(%eax)
 8048644:	02 00                	add    (%eax),%al
 8048646:	02 00                	add    (%eax),%al
 8048648:	02 00                	add    (%eax),%al
 804864a:	02 00                	add    (%eax),%al
 804864c:	02 00                	add    (%eax),%al
 804864e:	02 00                	add    (%eax),%al
 8048650:	02 00                	add    (%eax),%al
 8048652:	02 00                	add    (%eax),%al
 8048654:	00 00                	add    %al,(%eax)
 8048656:	02 00                	add    (%eax),%al
 8048658:	02 00                	add    (%eax),%al
 804865a:	02 00                	add    (%eax),%al
 804865c:	02 00                	add    (%eax),%al
 804865e:	02 00                	add    (%eax),%al
 8048660:	02 00                	add    (%eax),%al
 8048662:	01 00                	add    %eax,(%eax)
 8048664:	02 00                	add    (%eax),%al
 8048666:	02 00                	add    (%eax),%al
 8048668:	02 00                	add    (%eax),%al
 804866a:	02 00                	add    (%eax),%al
 804866c:	02 00                	add    (%eax),%al
 804866e:	02 00                	add    (%eax),%al
 8048670:	02 00                	add    (%eax),%al
 8048672:	02 00                	add    (%eax),%al
 8048674:	02 00                	add    (%eax),%al
 8048676:	02 00                	add    (%eax),%al
 8048678:	02 00                	add    (%eax),%al
 804867a:	02 00                	add    (%eax),%al
 804867c:	02 00                	add    (%eax),%al
 804867e:	02 00                	add    (%eax),%al
 8048680:	02 00                	add    (%eax),%al
 8048682:	02 00                	add    (%eax),%al
 8048684:	02 00                	add    (%eax),%al
 8048686:	02 00                	add    (%eax),%al
 8048688:	02 00                	add    (%eax),%al
 804868a:	02 00                	add    (%eax),%al
 804868c:	02 00                	add    (%eax),%al
 804868e:	02 00                	add    (%eax),%al

Disassembly of section .gnu.version_r:

08048690 <.gnu.version_r>:
 8048690:	01 00                	add    %eax,(%eax)
 8048692:	01 00                	add    %eax,(%eax)
 8048694:	10 00                	adc    %al,(%eax)
 8048696:	00 00                	add    %al,(%eax)
 8048698:	10 00                	adc    %al,(%eax)
 804869a:	00 00                	add    %al,(%eax)
 804869c:	00 00                	add    %al,(%eax)
 804869e:	00 00                	add    %al,(%eax)
 80486a0:	10 69 69             	adc    %ch,0x69(%ecx)
 80486a3:	0d 00 00 02 00       	or     $0x20000,%eax
 80486a8:	28 01                	sub    %al,(%ecx)
 80486aa:	00 00                	add    %al,(%eax)
 80486ac:	00 00                	add    %al,(%eax)
	...

Disassembly of section .rel.dyn:

080486b0 <.rel.dyn>:
 80486b0:	dc b0 04 08 06 09    	fdivl  0x9060804(%eax)
 80486b6:	00 00                	add    %al,(%eax)
 80486b8:	a0 b1 04 08 05       	mov    0x50804b1,%al
 80486bd:	14 00                	adc    $0x0,%al
 80486bf:	00 a4 b1 04 08 05 1e 	add    %ah,0x1e050804(%ecx,%esi,4)
 80486c6:	00 00                	add    %al,(%eax)
 80486c8:	a8 b1                	test   $0xb1,%al
 80486ca:	04 08                	add    $0x8,%al
 80486cc:	05                   	.byte 0x5
 80486cd:	23 00                	and    (%eax),%eax
	...

Disassembly of section .rel.plt:

080486d0 <.rel.plt>:
 80486d0:	ec                   	in     (%dx),%al
 80486d1:	b0 04                	mov    $0x4,%al
 80486d3:	08 07                	or     %al,(%edi)
 80486d5:	01 00                	add    %eax,(%eax)
 80486d7:	00 f0                	add    %dh,%al
 80486d9:	b0 04                	mov    $0x4,%al
 80486db:	08 07                	or     %al,(%edi)
 80486dd:	02 00                	add    (%eax),%al
 80486df:	00 f4                	add    %dh,%ah
 80486e1:	b0 04                	mov    $0x4,%al
 80486e3:	08 07                	or     %al,(%edi)
 80486e5:	03 00                	add    (%eax),%eax
 80486e7:	00 f8                	add    %bh,%al
 80486e9:	b0 04                	mov    $0x4,%al
 80486eb:	08 07                	or     %al,(%edi)
 80486ed:	04 00                	add    $0x0,%al
 80486ef:	00 fc                	add    %bh,%ah
 80486f1:	b0 04                	mov    $0x4,%al
 80486f3:	08 07                	or     %al,(%edi)
 80486f5:	05 00 00 00 b1       	add    $0xb1000000,%eax
 80486fa:	04 08                	add    $0x8,%al
 80486fc:	07                   	pop    %es
 80486fd:	06                   	push   %es
 80486fe:	00 00                	add    %al,(%eax)
 8048700:	04 b1                	add    $0xb1,%al
 8048702:	04 08                	add    $0x8,%al
 8048704:	07                   	pop    %es
 8048705:	07                   	pop    %es
 8048706:	00 00                	add    %al,(%eax)
 8048708:	08 b1 04 08 07 08    	or     %dh,0x8070804(%ecx)
 804870e:	00 00                	add    %al,(%eax)
 8048710:	0c b1                	or     $0xb1,%al
 8048712:	04 08                	add    $0x8,%al
 8048714:	07                   	pop    %es
 8048715:	09 00                	or     %eax,(%eax)
 8048717:	00 10                	add    %dl,(%eax)
 8048719:	b1 04                	mov    $0x4,%cl
 804871b:	08 07                	or     %al,(%edi)
 804871d:	0a 00                	or     (%eax),%al
 804871f:	00 14 b1             	add    %dl,(%ecx,%esi,4)
 8048722:	04 08                	add    $0x8,%al
 8048724:	07                   	pop    %es
 8048725:	0b 00                	or     (%eax),%eax
 8048727:	00 18                	add    %bl,(%eax)
 8048729:	b1 04                	mov    $0x4,%cl
 804872b:	08 07                	or     %al,(%edi)
 804872d:	0c 00                	or     $0x0,%al
 804872f:	00 1c b1             	add    %bl,(%ecx,%esi,4)
 8048732:	04 08                	add    $0x8,%al
 8048734:	07                   	pop    %es
 8048735:	0d 00 00 20 b1       	or     $0xb1200000,%eax
 804873a:	04 08                	add    $0x8,%al
 804873c:	07                   	pop    %es
 804873d:	0e                   	push   %cs
 804873e:	00 00                	add    %al,(%eax)
 8048740:	24 b1                	and    $0xb1,%al
 8048742:	04 08                	add    $0x8,%al
 8048744:	07                   	pop    %es
 8048745:	0f 00 00             	sldt   (%eax)
 8048748:	28 b1 04 08 07 11    	sub    %dh,0x11070804(%ecx)
 804874e:	00 00                	add    %al,(%eax)
 8048750:	2c b1                	sub    $0xb1,%al
 8048752:	04 08                	add    $0x8,%al
 8048754:	07                   	pop    %es
 8048755:	12 00                	adc    (%eax),%al
 8048757:	00 30                	add    %dh,(%eax)
 8048759:	b1 04                	mov    $0x4,%cl
 804875b:	08 07                	or     %al,(%edi)
 804875d:	13 00                	adc    (%eax),%eax
 804875f:	00 34 b1             	add    %dh,(%ecx,%esi,4)
 8048762:	04 08                	add    $0x8,%al
 8048764:	07                   	pop    %es
 8048765:	15 00 00 38 b1       	adc    $0xb1380000,%eax
 804876a:	04 08                	add    $0x8,%al
 804876c:	07                   	pop    %es
 804876d:	16                   	push   %ss
 804876e:	00 00                	add    %al,(%eax)
 8048770:	3c b1                	cmp    $0xb1,%al
 8048772:	04 08                	add    $0x8,%al
 8048774:	07                   	pop    %es
 8048775:	17                   	pop    %ss
 8048776:	00 00                	add    %al,(%eax)
 8048778:	40                   	inc    %eax
 8048779:	b1 04                	mov    $0x4,%cl
 804877b:	08 07                	or     %al,(%edi)
 804877d:	18 00                	sbb    %al,(%eax)
 804877f:	00 44 b1 04          	add    %al,0x4(%ecx,%esi,4)
 8048783:	08 07                	or     %al,(%edi)
 8048785:	19 00                	sbb    %eax,(%eax)
 8048787:	00 48 b1             	add    %cl,-0x4f(%eax)
 804878a:	04 08                	add    $0x8,%al
 804878c:	07                   	pop    %es
 804878d:	1a 00                	sbb    (%eax),%al
 804878f:	00 4c b1 04          	add    %cl,0x4(%ecx,%esi,4)
 8048793:	08 07                	or     %al,(%edi)
 8048795:	1b 00                	sbb    (%eax),%eax
 8048797:	00 50 b1             	add    %dl,-0x4f(%eax)
 804879a:	04 08                	add    $0x8,%al
 804879c:	07                   	pop    %es
 804879d:	1c 00                	sbb    $0x0,%al
 804879f:	00 54 b1 04          	add    %dl,0x4(%ecx,%esi,4)
 80487a3:	08 07                	or     %al,(%edi)
 80487a5:	1d 00 00 58 b1       	sbb    $0xb1580000,%eax
 80487aa:	04 08                	add    $0x8,%al
 80487ac:	07                   	pop    %es
 80487ad:	1f                   	pop    %ds
 80487ae:	00 00                	add    %al,(%eax)
 80487b0:	5c                   	pop    %esp
 80487b1:	b1 04                	mov    $0x4,%cl
 80487b3:	08 07                	or     %al,(%edi)
 80487b5:	20 00                	and    %al,(%eax)
 80487b7:	00 60 b1             	add    %ah,-0x4f(%eax)
 80487ba:	04 08                	add    $0x8,%al
 80487bc:	07                   	pop    %es
 80487bd:	21 00                	and    %eax,(%eax)
 80487bf:	00 64 b1 04          	add    %ah,0x4(%ecx,%esi,4)
 80487c3:	08 07                	or     %al,(%edi)
 80487c5:	22 00                	and    (%eax),%al
 80487c7:	00 68 b1             	add    %ch,-0x4f(%eax)
 80487ca:	04 08                	add    $0x8,%al
 80487cc:	07                   	pop    %es
 80487cd:	24 00                	and    $0x0,%al
 80487cf:	00 6c b1 04          	add    %ch,0x4(%ecx,%esi,4)
 80487d3:	08 07                	or     %al,(%edi)
 80487d5:	25 00 00 70 b1       	and    $0xb1700000,%eax
 80487da:	04 08                	add    $0x8,%al
 80487dc:	07                   	pop    %es
 80487dd:	26 00 00             	add    %al,%es:(%eax)

Disassembly of section .init:

080487e0 <_init>:
 80487e0:	55                   	push   %ebp
 80487e1:	89 e5                	mov    %esp,%ebp
 80487e3:	53                   	push   %ebx
 80487e4:	83 ec 04             	sub    $0x4,%esp
 80487e7:	e8 00 00 00 00       	call   80487ec <_init+0xc>
 80487ec:	5b                   	pop    %ebx
 80487ed:	81 c3 f4 28 00 00    	add    $0x28f4,%ebx
 80487f3:	8b 93 fc ff ff ff    	mov    -0x4(%ebx),%edx
 80487f9:	85 d2                	test   %edx,%edx
 80487fb:	74 05                	je     8048802 <_init+0x22>
 80487fd:	e8 9e 00 00 00       	call   80488a0 <__gmon_start__@plt>
 8048802:	e8 c9 02 00 00       	call   8048ad0 <frame_dummy>
 8048807:	e8 e4 16 00 00       	call   8049ef0 <__do_global_ctors_aux>
 804880c:	58                   	pop    %eax
 804880d:	5b                   	pop    %ebx
 804880e:	c9                   	leave  
 804880f:	c3                   	ret    

Disassembly of section .plt:

08048810 <__errno_location@plt-0x10>:
 8048810:	ff 35 e4 b0 04 08    	pushl  0x804b0e4
 8048816:	ff 25 e8 b0 04 08    	jmp    *0x804b0e8
 804881c:	00 00                	add    %al,(%eax)
	...

08048820 <__errno_location@plt>:
 8048820:	ff 25 ec b0 04 08    	jmp    *0x804b0ec
 8048826:	68 00 00 00 00       	push   $0x0
 804882b:	e9 e0 ff ff ff       	jmp    8048810 <_init+0x30>

08048830 <sprintf@plt>:
 8048830:	ff 25 f0 b0 04 08    	jmp    *0x804b0f0
 8048836:	68 08 00 00 00       	push   $0x8
 804883b:	e9 d0 ff ff ff       	jmp    8048810 <_init+0x30>

08048840 <srand@plt>:
 8048840:	ff 25 f4 b0 04 08    	jmp    *0x804b0f4
 8048846:	68 10 00 00 00       	push   $0x10
 804884b:	e9 c0 ff ff ff       	jmp    8048810 <_init+0x30>

08048850 <connect@plt>:
 8048850:	ff 25 f8 b0 04 08    	jmp    *0x804b0f8
 8048856:	68 18 00 00 00       	push   $0x18
 804885b:	e9 b0 ff ff ff       	jmp    8048810 <_init+0x30>

08048860 <mmap@plt>:
 8048860:	ff 25 fc b0 04 08    	jmp    *0x804b0fc
 8048866:	68 20 00 00 00       	push   $0x20
 804886b:	e9 a0 ff ff ff       	jmp    8048810 <_init+0x30>

08048870 <getpid@plt>:
 8048870:	ff 25 00 b1 04 08    	jmp    *0x804b100
 8048876:	68 28 00 00 00       	push   $0x28
 804887b:	e9 90 ff ff ff       	jmp    8048810 <_init+0x30>

08048880 <random@plt>:
 8048880:	ff 25 04 b1 04 08    	jmp    *0x804b104
 8048886:	68 30 00 00 00       	push   $0x30
 804888b:	e9 80 ff ff ff       	jmp    8048810 <_init+0x30>

08048890 <signal@plt>:
 8048890:	ff 25 08 b1 04 08    	jmp    *0x804b108
 8048896:	68 38 00 00 00       	push   $0x38
 804889b:	e9 70 ff ff ff       	jmp    8048810 <_init+0x30>

080488a0 <__gmon_start__@plt>:
 80488a0:	ff 25 0c b1 04 08    	jmp    *0x804b10c
 80488a6:	68 40 00 00 00       	push   $0x40
 80488ab:	e9 60 ff ff ff       	jmp    8048810 <_init+0x30>

080488b0 <calloc@plt>:
 80488b0:	ff 25 10 b1 04 08    	jmp    *0x804b110
 80488b6:	68 48 00 00 00       	push   $0x48
 80488bb:	e9 50 ff ff ff       	jmp    8048810 <_init+0x30>

080488c0 <write@plt>:
 80488c0:	ff 25 14 b1 04 08    	jmp    *0x804b114
 80488c6:	68 50 00 00 00       	push   $0x50
 80488cb:	e9 40 ff ff ff       	jmp    8048810 <_init+0x30>

080488d0 <memset@plt>:
 80488d0:	ff 25 18 b1 04 08    	jmp    *0x804b118
 80488d6:	68 58 00 00 00       	push   $0x58
 80488db:	e9 30 ff ff ff       	jmp    8048810 <_init+0x30>

080488e0 <__libc_start_main@plt>:
 80488e0:	ff 25 1c b1 04 08    	jmp    *0x804b11c
 80488e6:	68 60 00 00 00       	push   $0x60
 80488eb:	e9 20 ff ff ff       	jmp    8048810 <_init+0x30>

080488f0 <_IO_getc@plt>:
 80488f0:	ff 25 20 b1 04 08    	jmp    *0x804b120
 80488f6:	68 68 00 00 00       	push   $0x68
 80488fb:	e9 10 ff ff ff       	jmp    8048810 <_init+0x30>

08048900 <read@plt>:
 8048900:	ff 25 24 b1 04 08    	jmp    *0x804b124
 8048906:	68 70 00 00 00       	push   $0x70
 804890b:	e9 00 ff ff ff       	jmp    8048810 <_init+0x30>

08048910 <socket@plt>:
 8048910:	ff 25 28 b1 04 08    	jmp    *0x804b128
 8048916:	68 78 00 00 00       	push   $0x78
 804891b:	e9 f0 fe ff ff       	jmp    8048810 <_init+0x30>

08048920 <bcopy@plt>:
 8048920:	ff 25 2c b1 04 08    	jmp    *0x804b12c
 8048926:	68 80 00 00 00       	push   $0x80
 804892b:	e9 e0 fe ff ff       	jmp    8048810 <_init+0x30>

08048930 <getopt@plt>:
 8048930:	ff 25 30 b1 04 08    	jmp    *0x804b130
 8048936:	68 88 00 00 00       	push   $0x88
 804893b:	e9 d0 fe ff ff       	jmp    8048810 <_init+0x30>

08048940 <memcpy@plt>:
 8048940:	ff 25 34 b1 04 08    	jmp    *0x804b134
 8048946:	68 90 00 00 00       	push   $0x90
 804894b:	e9 c0 fe ff ff       	jmp    8048810 <_init+0x30>

08048950 <alarm@plt>:
 8048950:	ff 25 38 b1 04 08    	jmp    *0x804b138
 8048956:	68 98 00 00 00       	push   $0x98
 804895b:	e9 b0 fe ff ff       	jmp    8048810 <_init+0x30>

08048960 <strcpy@plt>:
 8048960:	ff 25 3c b1 04 08    	jmp    *0x804b13c
 8048966:	68 a0 00 00 00       	push   $0xa0
 804896b:	e9 a0 fe ff ff       	jmp    8048810 <_init+0x30>

08048970 <printf@plt>:
 8048970:	ff 25 40 b1 04 08    	jmp    *0x804b140
 8048976:	68 a8 00 00 00       	push   $0xa8
 804897b:	e9 90 fe ff ff       	jmp    8048810 <_init+0x30>

08048980 <strcasecmp@plt>:
 8048980:	ff 25 44 b1 04 08    	jmp    *0x804b144
 8048986:	68 b0 00 00 00       	push   $0xb0
 804898b:	e9 80 fe ff ff       	jmp    8048810 <_init+0x30>

08048990 <srandom@plt>:
 8048990:	ff 25 48 b1 04 08    	jmp    *0x804b148
 8048996:	68 b8 00 00 00       	push   $0xb8
 804899b:	e9 70 fe ff ff       	jmp    8048810 <_init+0x30>

080489a0 <close@plt>:
 80489a0:	ff 25 4c b1 04 08    	jmp    *0x804b14c
 80489a6:	68 c0 00 00 00       	push   $0xc0
 80489ab:	e9 60 fe ff ff       	jmp    8048810 <_init+0x30>

080489b0 <fwrite@plt>:
 80489b0:	ff 25 50 b1 04 08    	jmp    *0x804b150
 80489b6:	68 c8 00 00 00       	push   $0xc8
 80489bb:	e9 50 fe ff ff       	jmp    8048810 <_init+0x30>

080489c0 <gethostname@plt>:
 80489c0:	ff 25 54 b1 04 08    	jmp    *0x804b154
 80489c6:	68 d0 00 00 00       	push   $0xd0
 80489cb:	e9 40 fe ff ff       	jmp    8048810 <_init+0x30>

080489d0 <puts@plt>:
 80489d0:	ff 25 58 b1 04 08    	jmp    *0x804b158
 80489d6:	68 d8 00 00 00       	push   $0xd8
 80489db:	e9 30 fe ff ff       	jmp    8048810 <_init+0x30>

080489e0 <rand@plt>:
 80489e0:	ff 25 5c b1 04 08    	jmp    *0x804b15c
 80489e6:	68 e0 00 00 00       	push   $0xe0
 80489eb:	e9 20 fe ff ff       	jmp    8048810 <_init+0x30>

080489f0 <sscanf@plt>:
 80489f0:	ff 25 60 b1 04 08    	jmp    *0x804b160
 80489f6:	68 e8 00 00 00       	push   $0xe8
 80489fb:	e9 10 fe ff ff       	jmp    8048810 <_init+0x30>

08048a00 <munmap@plt>:
 8048a00:	ff 25 64 b1 04 08    	jmp    *0x804b164
 8048a06:	68 f0 00 00 00       	push   $0xf0
 8048a0b:	e9 00 fe ff ff       	jmp    8048810 <_init+0x30>

08048a10 <gethostbyname@plt>:
 8048a10:	ff 25 68 b1 04 08    	jmp    *0x804b168
 8048a16:	68 f8 00 00 00       	push   $0xf8
 8048a1b:	e9 f0 fd ff ff       	jmp    8048810 <_init+0x30>

08048a20 <__strdup@plt>:
 8048a20:	ff 25 6c b1 04 08    	jmp    *0x804b16c
 8048a26:	68 00 01 00 00       	push   $0x100
 8048a2b:	e9 e0 fd ff ff       	jmp    8048810 <_init+0x30>

08048a30 <exit@plt>:
 8048a30:	ff 25 70 b1 04 08    	jmp    *0x804b170
 8048a36:	68 08 01 00 00       	push   $0x108
 8048a3b:	e9 d0 fd ff ff       	jmp    8048810 <_init+0x30>

Disassembly of section .text:

08048a40 <_start>:
 8048a40:	31 ed                	xor    %ebp,%ebp
 8048a42:	5e                   	pop    %esi
 8048a43:	89 e1                	mov    %esp,%ecx
 8048a45:	83 e4 f0             	and    $0xfffffff0,%esp
 8048a48:	50                   	push   %eax
 8048a49:	54                   	push   %esp
 8048a4a:	52                   	push   %edx
 8048a4b:	68 84 9e 04 08       	push   $0x8049e84
 8048a50:	68 89 9e 04 08       	push   $0x8049e89
 8048a55:	51                   	push   %ecx
 8048a56:	56                   	push   %esi
 8048a57:	68 e8 8e 04 08       	push   $0x8048ee8
 8048a5c:	e8 7f fe ff ff       	call   80488e0 <__libc_start_main@plt>
 8048a61:	f4                   	hlt    
 8048a62:	90                   	nop
 8048a63:	90                   	nop
 8048a64:	90                   	nop
 8048a65:	90                   	nop
 8048a66:	90                   	nop
 8048a67:	90                   	nop
 8048a68:	90                   	nop
 8048a69:	90                   	nop
 8048a6a:	90                   	nop
 8048a6b:	90                   	nop
 8048a6c:	90                   	nop
 8048a6d:	90                   	nop
 8048a6e:	90                   	nop
 8048a6f:	90                   	nop

08048a70 <__do_global_dtors_aux>:
 8048a70:	55                   	push   %ebp
 8048a71:	89 e5                	mov    %esp,%ebp
 8048a73:	53                   	push   %ebx
 8048a74:	83 ec 04             	sub    $0x4,%esp
 8048a77:	80 3d ac b1 04 08 00 	cmpb   $0x0,0x804b1ac
 8048a7e:	75 3f                	jne    8048abf <__do_global_dtors_aux+0x4f>
 8048a80:	a1 b0 b1 04 08       	mov    0x804b1b0,%eax
 8048a85:	bb 0c b0 04 08       	mov    $0x804b00c,%ebx
 8048a8a:	81 eb 08 b0 04 08    	sub    $0x804b008,%ebx
 8048a90:	c1 fb 02             	sar    $0x2,%ebx
 8048a93:	83 eb 01             	sub    $0x1,%ebx
 8048a96:	39 d8                	cmp    %ebx,%eax
 8048a98:	73 1e                	jae    8048ab8 <__do_global_dtors_aux+0x48>
 8048a9a:	8d b6 00 00 00 00    	lea    0x0(%esi),%esi
 8048aa0:	83 c0 01             	add    $0x1,%eax
 8048aa3:	a3 b0 b1 04 08       	mov    %eax,0x804b1b0
 8048aa8:	ff 14 85 08 b0 04 08 	call   *0x804b008(,%eax,4)
 8048aaf:	a1 b0 b1 04 08       	mov    0x804b1b0,%eax
 8048ab4:	39 d8                	cmp    %ebx,%eax
 8048ab6:	72 e8                	jb     8048aa0 <__do_global_dtors_aux+0x30>
 8048ab8:	c6 05 ac b1 04 08 01 	movb   $0x1,0x804b1ac
 8048abf:	83 c4 04             	add    $0x4,%esp
 8048ac2:	5b                   	pop    %ebx
 8048ac3:	5d                   	pop    %ebp
 8048ac4:	c3                   	ret    
 8048ac5:	8d 74 26 00          	lea    0x0(%esi,%eiz,1),%esi
 8048ac9:	8d bc 27 00 00 00 00 	lea    0x0(%edi,%eiz,1),%edi

08048ad0 <frame_dummy>:
 8048ad0:	55                   	push   %ebp
 8048ad1:	89 e5                	mov    %esp,%ebp
 8048ad3:	83 ec 18             	sub    $0x18,%esp
 8048ad6:	a1 10 b0 04 08       	mov    0x804b010,%eax
 8048adb:	85 c0                	test   %eax,%eax
 8048add:	74 12                	je     8048af1 <frame_dummy+0x21>
 8048adf:	b8 00 00 00 00       	mov    $0x0,%eax
 8048ae4:	85 c0                	test   %eax,%eax
 8048ae6:	74 09                	je     8048af1 <frame_dummy+0x21>
 8048ae8:	c7 04 24 10 b0 04 08 	movl   $0x804b010,(%esp)
 8048aef:	ff d0                	call   *%eax
 8048af1:	c9                   	leave  
 8048af2:	c3                   	ret    
 8048af3:	90                   	nop
 8048af4:	90                   	nop
 8048af5:	90                   	nop
 8048af6:	90                   	nop
 8048af7:	90                   	nop
 8048af8:	90                   	nop
 8048af9:	90                   	nop
 8048afa:	90                   	nop
 8048afb:	90                   	nop
 8048afc:	90                   	nop
 8048afd:	90                   	nop
 8048afe:	90                   	nop
 8048aff:	90                   	nop

08048b00 <usage>:
 8048b00:	55                   	push   %ebp
 8048b01:	89 e5                	mov    %esp,%ebp
 8048b03:	83 ec 18             	sub    $0x18,%esp
 8048b06:	89 44 24 04          	mov    %eax,0x4(%esp)
 8048b0a:	c7 04 24 40 9f 04 08 	movl   $0x8049f40,(%esp)
 8048b11:	e8 5a fe ff ff       	call   8048970 <printf@plt>
 8048b16:	c7 04 24 5e 9f 04 08 	movl   $0x8049f5e,(%esp)
 8048b1d:	e8 ae fe ff ff       	call   80489d0 <puts@plt>
 8048b22:	c7 04 24 74 9f 04 08 	movl   $0x8049f74,(%esp)
 8048b29:	e8 a2 fe ff ff       	call   80489d0 <puts@plt>
 8048b2e:	c7 04 24 7c a0 04 08 	movl   $0x804a07c,(%esp)
 8048b35:	e8 96 fe ff ff       	call   80489d0 <puts@plt>
 8048b3a:	c7 04 24 b8 a0 04 08 	movl   $0x804a0b8,(%esp)
 8048b41:	e8 8a fe ff ff       	call   80489d0 <puts@plt>
 8048b46:	c7 04 24 00 00 00 00 	movl   $0x0,(%esp)
 8048b4d:	e8 de fe ff ff       	call   8048a30 <exit@plt>

08048b52 <illegalhandler>:
 8048b52:	55                   	push   %ebp
 8048b53:	89 e5                	mov    %esp,%ebp
 8048b55:	83 ec 18             	sub    $0x18,%esp
 8048b58:	c7 04 24 e0 a0 04 08 	movl   $0x804a0e0,(%esp)
 8048b5f:	e8 6c fe ff ff       	call   80489d0 <puts@plt>
 8048b64:	c7 04 24 8d 9f 04 08 	movl   $0x8049f8d,(%esp)
 8048b6b:	e8 60 fe ff ff       	call   80489d0 <puts@plt>
 8048b70:	c7 04 24 00 00 00 00 	movl   $0x0,(%esp)
 8048b77:	e8 b4 fe ff ff       	call   8048a30 <exit@plt>

08048b7c <seghandler>:
 8048b7c:	55                   	push   %ebp
 8048b7d:	89 e5                	mov    %esp,%ebp
 8048b7f:	83 ec 18             	sub    $0x18,%esp
 8048b82:	c7 04 24 0c a1 04 08 	movl   $0x804a10c,(%esp)
 8048b89:	e8 42 fe ff ff       	call   80489d0 <puts@plt>
 8048b8e:	c7 04 24 8d 9f 04 08 	movl   $0x8049f8d,(%esp)
 8048b95:	e8 36 fe ff ff       	call   80489d0 <puts@plt>
 8048b9a:	c7 04 24 00 00 00 00 	movl   $0x0,(%esp)
 8048ba1:	e8 8a fe ff ff       	call   8048a30 <exit@plt>

08048ba6 <bushandler>:
 8048ba6:	55                   	push   %ebp
 8048ba7:	89 e5                	mov    %esp,%ebp
 8048ba9:	83 ec 18             	sub    $0x18,%esp
 8048bac:	c7 04 24 34 a1 04 08 	movl   $0x804a134,(%esp)
 8048bb3:	e8 18 fe ff ff       	call   80489d0 <puts@plt>
 8048bb8:	c7 04 24 8d 9f 04 08 	movl   $0x8049f8d,(%esp)
 8048bbf:	e8 0c fe ff ff       	call   80489d0 <puts@plt>
 8048bc4:	c7 04 24 00 00 00 00 	movl   $0x0,(%esp)
 8048bcb:	e8 60 fe ff ff       	call   8048a30 <exit@plt>

08048bd0 <uniqueval>:
 8048bd0:	55                   	push   %ebp
 8048bd1:	89 e5                	mov    %esp,%ebp
 8048bd3:	83 ec 18             	sub    $0x18,%esp
 8048bd6:	e8 95 fc ff ff       	call   8048870 <getpid@plt>
 8048bdb:	89 04 24             	mov    %eax,(%esp)
 8048bde:	e8 ad fd ff ff       	call   8048990 <srandom@plt>
 8048be3:	e8 98 fc ff ff       	call   8048880 <random@plt>
 8048be8:	c9                   	leave  
 8048be9:	8d b4 26 00 00 00 00 	lea    0x0(%esi,%eiz,1),%esi
 8048bf0:	c3                   	ret    

08048bf1 <Gets>:
 8048bf1:	55                   	push   %ebp
 8048bf2:	89 e5                	mov    %esp,%ebp
 8048bf4:	57                   	push   %edi
 8048bf5:	56                   	push   %esi
 8048bf6:	53                   	push   %ebx
 8048bf7:	83 ec 1c             	sub    $0x1c,%esp
 8048bfa:	c7 05 d0 b1 04 08 00 	movl   $0x0,0x804b1d0
 8048c01:	00 00 00 
 8048c04:	8b 75 08             	mov    0x8(%ebp),%esi
 8048c07:	bf 98 a2 04 08       	mov    $0x804a298,%edi
 8048c0c:	eb 42                	jmp    8048c50 <Gets+0x5f>
 8048c0e:	89 d9                	mov    %ebx,%ecx
 8048c10:	88 1e                	mov    %bl,(%esi)
 8048c12:	a1 d0 b1 04 08       	mov    0x804b1d0,%eax
 8048c17:	3d ff 03 00 00       	cmp    $0x3ff,%eax
 8048c1c:	7f 2f                	jg     8048c4d <Gets+0x5c>
 8048c1e:	8d 14 40             	lea    (%eax,%eax,2),%edx
 8048c21:	c0 eb 04             	shr    $0x4,%bl
 8048c24:	0f be db             	movsbl %bl,%ebx
 8048c27:	0f b6 1c 1f          	movzbl (%edi,%ebx,1),%ebx
 8048c2b:	88 9a e0 c1 04 08    	mov    %bl,0x804c1e0(%edx)
 8048c31:	83 e1 0f             	and    $0xf,%ecx
 8048c34:	0f b6 0c 0f          	movzbl (%edi,%ecx,1),%ecx
 8048c38:	88 8a e1 c1 04 08    	mov    %cl,0x804c1e1(%edx)
 8048c3e:	c6 82 e2 c1 04 08 20 	movb   $0x20,0x804c1e2(%edx)
 8048c45:	83 c0 01             	add    $0x1,%eax
 8048c48:	a3 d0 b1 04 08       	mov    %eax,0x804b1d0
 8048c4d:	83 c6 01             	add    $0x1,%esi
 8048c50:	8b 1d c0 b1 04 08    	mov    0x804b1c0,%ebx
 8048c56:	89 1c 24             	mov    %ebx,(%esp)
 8048c59:	e8 92 fc ff ff       	call   80488f0 <_IO_getc@plt>
 8048c5e:	89 c3                	mov    %eax,%ebx
 8048c60:	83 f8 ff             	cmp    $0xffffffff,%eax
 8048c63:	74 05                	je     8048c6a <Gets+0x79>
 8048c65:	83 f8 0a             	cmp    $0xa,%eax
 8048c68:	75 a4                	jne    8048c0e <Gets+0x1d>
 8048c6a:	c6 06 00             	movb   $0x0,(%esi)
 8048c6d:	8b 1d d0 b1 04 08    	mov    0x804b1d0,%ebx
 8048c73:	c6 84 5b e0 c1 04 08 	movb   $0x0,0x804c1e0(%ebx,%ebx,2)
 8048c7a:	00 
 8048c7b:	8b 45 08             	mov    0x8(%ebp),%eax
 8048c7e:	83 c4 1c             	add    $0x1c,%esp
 8048c81:	5b                   	pop    %ebx
 8048c82:	5e                   	pop    %esi
 8048c83:	5f                   	pop    %edi
 8048c84:	5d                   	pop    %ebp
 8048c85:	c3                   	ret    

08048c86 <getbufn>:
 8048c86:	55                   	push   %ebp
 8048c87:	89 e5                	mov    %esp,%ebp
 8048c89:	81 ec 18 02 00 00    	sub    $0x218,%esp
 8048c8f:	8d 85 f8 fd ff ff    	lea    -0x208(%ebp),%eax
 8048c95:	89 04 24             	mov    %eax,(%esp)
 8048c98:	e8 54 ff ff ff       	call   8048bf1 <Gets>
 8048c9d:	b8 01 00 00 00       	mov    $0x1,%eax
 8048ca2:	c9                   	leave  
 8048ca3:	c3                   	ret    

08048ca4 <getbuf>:
 8048ca4:	55                   	push   %ebp
 8048ca5:	89 e5                	mov    %esp,%ebp
 8048ca7:	83 ec 38             	sub    $0x38,%esp
 8048caa:	8d 45 d8             	lea    -0x28(%ebp),%eax
 8048cad:	89 04 24             	mov    %eax,(%esp)
 8048cb0:	e8 3c ff ff ff       	call   8048bf1 <Gets>
 8048cb5:	b8 01 00 00 00       	mov    $0x1,%eax
 8048cba:	c9                   	leave  
 8048cbb:	c3                   	ret    

08048cbc <testn>:
 8048cbc:	55                   	push   %ebp
 8048cbd:	89 e5                	mov    %esp,%ebp
 8048cbf:	53                   	push   %ebx
 8048cc0:	83 ec 24             	sub    $0x24,%esp
 8048cc3:	c7 45 f4 ef be ad de 	movl   $0xdeadbeef,-0xc(%ebp)
 8048cca:	e8 b7 ff ff ff       	call   8048c86 <getbufn>
 8048ccf:	89 c3                	mov    %eax,%ebx
 8048cd1:	8b 45 f4             	mov    -0xc(%ebp),%eax
 8048cd4:	3d ef be ad de       	cmp    $0xdeadbeef,%eax
 8048cd9:	74 0e                	je     8048ce9 <testn+0x2d>
 8048cdb:	c7 04 24 54 a1 04 08 	movl   $0x804a154,(%esp)
 8048ce2:	e8 e9 fc ff ff       	call   80489d0 <puts@plt>
 8048ce7:	eb 36                	jmp    8048d1f <testn+0x63>
 8048ce9:	3b 1d c4 b1 04 08    	cmp    0x804b1c4,%ebx
 8048cef:	75 1e                	jne    8048d0f <testn+0x53>
 8048cf1:	89 5c 24 04          	mov    %ebx,0x4(%esp)
 8048cf5:	c7 04 24 80 a1 04 08 	movl   $0x804a180,(%esp)
 8048cfc:	e8 6f fc ff ff       	call   8048970 <printf@plt>
 8048d01:	c7 04 24 04 00 00 00 	movl   $0x4,(%esp)
 8048d08:	e8 93 04 00 00       	call   80491a0 <validate>
 8048d0d:	eb 10                	jmp    8048d1f <testn+0x63>
 8048d0f:	89 5c 24 04          	mov    %ebx,0x4(%esp)
 8048d13:	c7 04 24 a3 9f 04 08 	movl   $0x8049fa3,(%esp)
 8048d1a:	e8 51 fc ff ff       	call   8048970 <printf@plt>
 8048d1f:	83 c4 24             	add    $0x24,%esp
 8048d22:	5b                   	pop    %ebx
 8048d23:	5d                   	pop    %ebp
 8048d24:	c3                   	ret    

08048d25 <test>:
 8048d25:	55                   	push   %ebp
 8048d26:	89 e5                	mov    %esp,%ebp
 8048d28:	53                   	push   %ebx
 8048d29:	83 ec 24             	sub    $0x24,%esp
 8048d2c:	e8 9f fe ff ff       	call   8048bd0 <uniqueval>
 8048d31:	89 45 f4             	mov    %eax,-0xc(%ebp)
 8048d34:	e8 6b ff ff ff       	call   8048ca4 <getbuf>
 8048d39:	89 c3                	mov    %eax,%ebx
 8048d3b:	e8 90 fe ff ff       	call   8048bd0 <uniqueval>
 8048d40:	8b 55 f4             	mov    -0xc(%ebp),%edx
 8048d43:	39 d0                	cmp    %edx,%eax
 8048d45:	74 0e                	je     8048d55 <test+0x30>
 8048d47:	c7 04 24 54 a1 04 08 	movl   $0x804a154,(%esp)
 8048d4e:	e8 7d fc ff ff       	call   80489d0 <puts@plt>
 8048d53:	eb 36                	jmp    8048d8b <test+0x66>
 8048d55:	3b 1d c4 b1 04 08    	cmp    0x804b1c4,%ebx
 8048d5b:	75 1e                	jne    8048d7b <test+0x56>
 8048d5d:	89 5c 24 04          	mov    %ebx,0x4(%esp)
 8048d61:	c7 04 24 bf 9f 04 08 	movl   $0x8049fbf,(%esp)
 8048d68:	e8 03 fc ff ff       	call   8048970 <printf@plt>
 8048d6d:	c7 04 24 03 00 00 00 	movl   $0x3,(%esp)
 8048d74:	e8 27 04 00 00       	call   80491a0 <validate>
 8048d79:	eb 10                	jmp    8048d8b <test+0x66>
 8048d7b:	89 5c 24 04          	mov    %ebx,0x4(%esp)
 8048d7f:	c7 04 24 dc 9f 04 08 	movl   $0x8049fdc,(%esp)
 8048d86:	e8 e5 fb ff ff       	call   8048970 <printf@plt>
 8048d8b:	83 c4 24             	add    $0x24,%esp
 8048d8e:	5b                   	pop    %ebx
 8048d8f:	5d                   	pop    %ebp
 8048d90:	c3                   	ret    

08048d91 <launch>:
 8048d91:	55                   	push   %ebp
 8048d92:	89 e5                	mov    %esp,%ebp
 8048d94:	56                   	push   %esi
 8048d95:	53                   	push   %ebx
 8048d96:	83 ec 50             	sub    $0x50,%esp
 8048d99:	89 c6                	mov    %eax,%esi
 8048d9b:	8d 5d b8             	lea    -0x48(%ebp),%ebx
 8048d9e:	81 e3 f0 3f 00 00    	and    $0x3ff0,%ebx
 8048da4:	8d 44 13 1e          	lea    0x1e(%ebx,%edx,1),%eax
 8048da8:	83 e0 f0             	and    $0xfffffff0,%eax
 8048dab:	29 c4                	sub    %eax,%esp
 8048dad:	8d 44 24 1b          	lea    0x1b(%esp),%eax
 8048db1:	83 e0 f0             	and    $0xfffffff0,%eax
 8048db4:	89 5c 24 08          	mov    %ebx,0x8(%esp)
 8048db8:	c7 44 24 04 f4 00 00 	movl   $0xf4,0x4(%esp)
 8048dbf:	00 
 8048dc0:	89 04 24             	mov    %eax,(%esp)
 8048dc3:	e8 08 fb ff ff       	call   80488d0 <memset@plt>
 8048dc8:	c7 04 24 f7 9f 04 08 	movl   $0x8049ff7,(%esp)
 8048dcf:	e8 9c fb ff ff       	call   8048970 <printf@plt>
 8048dd4:	85 f6                	test   %esi,%esi
 8048dd6:	74 0a                	je     8048de2 <launch+0x51>
 8048dd8:	e8 df fe ff ff       	call   8048cbc <testn>
 8048ddd:	8d 76 00             	lea    0x0(%esi),%esi
 8048de0:	eb 0b                	jmp    8048ded <launch+0x5c>
 8048de2:	8d b6 00 00 00 00    	lea    0x0(%esi),%esi
 8048de8:	e8 38 ff ff ff       	call   8048d25 <test>
 8048ded:	83 3d c8 b1 04 08 00 	cmpl   $0x0,0x804b1c8
 8048df4:	8d 74 26 00          	lea    0x0(%esi,%eiz,1),%esi
 8048df8:	75 16                	jne    8048e10 <launch+0x7f>
 8048dfa:	c7 04 24 8d 9f 04 08 	movl   $0x8049f8d,(%esp)
 8048e01:	e8 ca fb ff ff       	call   80489d0 <puts@plt>
 8048e06:	c7 05 c8 b1 04 08 00 	movl   $0x0,0x804b1c8
 8048e0d:	00 00 00 
 8048e10:	8d 65 f8             	lea    -0x8(%ebp),%esp
 8048e13:	5b                   	pop    %ebx
 8048e14:	5e                   	pop    %esi
 8048e15:	5d                   	pop    %ebp
 8048e16:	c3                   	ret    

08048e17 <launcher>:
 8048e17:	55                   	push   %ebp
 8048e18:	89 e5                	mov    %esp,%ebp
 8048e1a:	53                   	push   %ebx
 8048e1b:	83 ec 24             	sub    $0x24,%esp
 8048e1e:	8b 45 08             	mov    0x8(%ebp),%eax
 8048e21:	a3 d4 b1 04 08       	mov    %eax,0x804b1d4
 8048e26:	8b 45 0c             	mov    0xc(%ebp),%eax
 8048e29:	a3 d8 b1 04 08       	mov    %eax,0x804b1d8
 8048e2e:	c7 44 24 14 00 00 00 	movl   $0x0,0x14(%esp)
 8048e35:	00 
 8048e36:	c7 44 24 10 00 00 00 	movl   $0x0,0x10(%esp)
 8048e3d:	00 
 8048e3e:	c7 44 24 0c 32 01 00 	movl   $0x132,0xc(%esp)
 8048e45:	00 
 8048e46:	c7 44 24 08 07 00 00 	movl   $0x7,0x8(%esp)
 8048e4d:	00 
 8048e4e:	c7 44 24 04 00 00 10 	movl   $0x100000,0x4(%esp)
 8048e55:	00 
 8048e56:	c7 04 24 00 60 58 55 	movl   $0x55586000,(%esp)
 8048e5d:	e8 fe f9 ff ff       	call   8048860 <mmap@plt>
 8048e62:	3d 00 60 58 55       	cmp    $0x55586000,%eax
 8048e67:	74 32                	je     8048e9b <launcher+0x84>
 8048e69:	8b 1d a0 b1 04 08    	mov    0x804b1a0,%ebx
 8048e6f:	89 5c 24 0c          	mov    %ebx,0xc(%esp)
 8048e73:	c7 44 24 08 47 00 00 	movl   $0x47,0x8(%esp)
 8048e7a:	00 
 8048e7b:	c7 44 24 04 01 00 00 	movl   $0x1,0x4(%esp)
 8048e82:	00 
 8048e83:	c7 04 24 a0 a1 04 08 	movl   $0x804a1a0,(%esp)
 8048e8a:	e8 21 fb ff ff       	call   80489b0 <fwrite@plt>
 8048e8f:	c7 04 24 01 00 00 00 	movl   $0x1,(%esp)
 8048e96:	e8 95 fb ff ff       	call   8048a30 <exit@plt>
 8048e9b:	c7 05 e4 cd 04 08 f8 	movl   $0x55685ff8,0x804cde4
 8048ea2:	5f 68 55 
 8048ea5:	ba f8 5f 68 55       	mov    $0x55685ff8,%edx
 8048eaa:	89 e0                	mov    %esp,%eax
 8048eac:	89 d4                	mov    %edx,%esp
 8048eae:	89 c2                	mov    %eax,%edx
 8048eb0:	89 15 dc b1 04 08    	mov    %edx,0x804b1dc
 8048eb6:	8b 15 d8 b1 04 08    	mov    0x804b1d8,%edx
 8048ebc:	a1 d4 b1 04 08       	mov    0x804b1d4,%eax
 8048ec1:	e8 cb fe ff ff       	call   8048d91 <launch>
 8048ec6:	8b 1d dc b1 04 08    	mov    0x804b1dc,%ebx
 8048ecc:	89 dc                	mov    %ebx,%esp
 8048ece:	c7 44 24 04 00 00 10 	movl   $0x100000,0x4(%esp)
 8048ed5:	00 
 8048ed6:	c7 04 24 00 60 58 55 	movl   $0x55586000,(%esp)
 8048edd:	e8 1e fb ff ff       	call   8048a00 <munmap@plt>
 8048ee2:	83 c4 24             	add    $0x24,%esp
 8048ee5:	5b                   	pop    %ebx
 8048ee6:	5d                   	pop    %ebp
 8048ee7:	c3                   	ret    

08048ee8 <main>:
 8048ee8:	55                   	push   %ebp
 8048ee9:	89 e5                	mov    %esp,%ebp
 8048eeb:	83 e4 f0             	and    $0xfffffff0,%esp
 8048eee:	57                   	push   %edi
 8048eef:	56                   	push   %esi
 8048ef0:	53                   	push   %ebx
 8048ef1:	83 ec 24             	sub    $0x24,%esp
 8048ef4:	8b 7d 08             	mov    0x8(%ebp),%edi
 8048ef7:	8b 75 0c             	mov    0xc(%ebp),%esi
 8048efa:	c7 44 24 04 7c 8b 04 	movl   $0x8048b7c,0x4(%esp)
 8048f01:	08 
 8048f02:	c7 04 24 0b 00 00 00 	movl   $0xb,(%esp)
 8048f09:	e8 82 f9 ff ff       	call   8048890 <signal@plt>
 8048f0e:	c7 44 24 04 a6 8b 04 	movl   $0x8048ba6,0x4(%esp)
 8048f15:	08 
 8048f16:	c7 04 24 07 00 00 00 	movl   $0x7,(%esp)
 8048f1d:	e8 6e f9 ff ff       	call   8048890 <signal@plt>
 8048f22:	c7 44 24 04 52 8b 04 	movl   $0x8048b52,0x4(%esp)
 8048f29:	08 
 8048f2a:	c7 04 24 04 00 00 00 	movl   $0x4,(%esp)
 8048f31:	e8 5a f9 ff ff       	call   8048890 <signal@plt>
 8048f36:	8b 1d a4 b1 04 08    	mov    0x804b1a4,%ebx
 8048f3c:	89 1d c0 b1 04 08    	mov    %ebx,0x804b1c0
 8048f42:	c7 44 24 1c 01 00 00 	movl   $0x1,0x1c(%esp)
 8048f49:	00 
 8048f4a:	c7 44 24 18 00 00 00 	movl   $0x0,0x18(%esp)
 8048f51:	00 
 8048f52:	eb 6e                	jmp    8048fc2 <main+0xda>
 8048f54:	83 eb 67             	sub    $0x67,%ebx
 8048f57:	80 fb 0e             	cmp    $0xe,%bl
 8048f5a:	77 5f                	ja     8048fbb <main+0xd3>
 8048f5c:	0f b6 db             	movzbl %bl,%ebx
 8048f5f:	ff 24 9d 5c a2 04 08 	jmp    *0x804a25c(,%ebx,4)
 8048f66:	c7 44 24 1c 05 00 00 	movl   $0x5,0x1c(%esp)
 8048f6d:	00 
 8048f6e:	c7 44 24 18 01 00 00 	movl   $0x1,0x18(%esp)
 8048f75:	00 
 8048f76:	eb 4a                	jmp    8048fc2 <main+0xda>
 8048f78:	8b 06                	mov    (%esi),%eax
 8048f7a:	e8 81 fb ff ff       	call   8048b00 <usage>
 8048f7f:	eb 41                	jmp    8048fc2 <main+0xda>
 8048f81:	8b 1d a8 b1 04 08    	mov    0x804b1a8,%ebx
 8048f87:	89 1c 24             	mov    %ebx,(%esp)
 8048f8a:	e8 91 fa ff ff       	call   8048a20 <__strdup@plt>
 8048f8f:	a3 b4 b1 04 08       	mov    %eax,0x804b1b4
 8048f94:	89 04 24             	mov    %eax,(%esp)
 8048f97:	e8 b1 0e 00 00       	call   8049e4d <gencookie>
 8048f9c:	a3 c4 b1 04 08       	mov    %eax,0x804b1c4
 8048fa1:	eb 1f                	jmp    8048fc2 <main+0xda>
 8048fa3:	c7 05 b8 b1 04 08 01 	movl   $0x1,0x804b1b8
 8048faa:	00 00 00 
 8048fad:	eb 13                	jmp    8048fc2 <main+0xda>
 8048faf:	c7 05 bc b1 04 08 01 	movl   $0x1,0x804b1bc
 8048fb6:	00 00 00 
 8048fb9:	eb 07                	jmp    8048fc2 <main+0xda>
 8048fbb:	8b 06                	mov    (%esi),%eax
 8048fbd:	e8 3e fb ff ff       	call   8048b00 <usage>
 8048fc2:	c7 44 24 08 04 a0 04 	movl   $0x804a004,0x8(%esp)
 8048fc9:	08 
 8048fca:	89 74 24 04          	mov    %esi,0x4(%esp)
 8048fce:	89 3c 24             	mov    %edi,(%esp)
 8048fd1:	e8 5a f9 ff ff       	call   8048930 <getopt@plt>
 8048fd6:	89 c3                	mov    %eax,%ebx
 8048fd8:	3c ff                	cmp    $0xff,%al
 8048fda:	0f 85 74 ff ff ff    	jne    8048f54 <main+0x6c>
 8048fe0:	83 3d b4 b1 04 08 00 	cmpl   $0x0,0x804b1b4
 8048fe7:	75 19                	jne    8049002 <main+0x11a>
 8048fe9:	8b 06                	mov    (%esi),%eax
 8048feb:	89 44 24 04          	mov    %eax,0x4(%esp)
 8048fef:	c7 04 24 e8 a1 04 08 	movl   $0x804a1e8,(%esp)
 8048ff6:	e8 75 f9 ff ff       	call   8048970 <printf@plt>
 8048ffb:	8b 06                	mov    (%esi),%eax
 8048ffd:	e8 fe fa ff ff       	call   8048b00 <usage>
 8049002:	e8 de 02 00 00       	call   80492e5 <initialize_bomb>
 8049007:	8b 1d b4 b1 04 08    	mov    0x804b1b4,%ebx
 804900d:	89 5c 24 04          	mov    %ebx,0x4(%esp)
 8049011:	c7 04 24 0b a0 04 08 	movl   $0x804a00b,(%esp)
 8049018:	e8 53 f9 ff ff       	call   8048970 <printf@plt>
 804901d:	8b 1d c4 b1 04 08    	mov    0x804b1c4,%ebx
 8049023:	89 5c 24 04          	mov    %ebx,0x4(%esp)
 8049027:	c7 04 24 17 a0 04 08 	movl   $0x804a017,(%esp)
 804902e:	e8 3d f9 ff ff       	call   8048970 <printf@plt>
 8049033:	8b 1d c4 b1 04 08    	mov    0x804b1c4,%ebx
 8049039:	89 1c 24             	mov    %ebx,(%esp)
 804903c:	e8 4f f9 ff ff       	call   8048990 <srandom@plt>
 8049041:	e8 3a f8 ff ff       	call   8048880 <random@plt>
 8049046:	89 c7                	mov    %eax,%edi
 8049048:	81 e7 f0 0f 00 00    	and    $0xff0,%edi
 804904e:	81 c7 00 01 00 00    	add    $0x100,%edi
 8049054:	c7 44 24 04 04 00 00 	movl   $0x4,0x4(%esp)
 804905b:	00 
 804905c:	8b 44 24 1c          	mov    0x1c(%esp),%eax
 8049060:	89 04 24             	mov    %eax,(%esp)
 8049063:	e8 48 f8 ff ff       	call   80488b0 <calloc@plt>
 8049068:	89 c6                	mov    %eax,%esi
 804906a:	c7 00 00 00 00 00    	movl   $0x0,(%eax)
 8049070:	83 7c 24 1c 01       	cmpl   $0x1,0x1c(%esp)
 8049075:	7e 2c                	jle    80490a3 <main+0x1bb>
 8049077:	bb 01 00 00 00       	mov    $0x1,%ebx
 804907c:	89 7c 24 14          	mov    %edi,0x14(%esp)
 8049080:	8b 7c 24 1c          	mov    0x1c(%esp),%edi
 8049084:	e8 f7 f7 ff ff       	call   8048880 <random@plt>
 8049089:	25 f0 00 00 00       	and    $0xf0,%eax
 804908e:	ba 80 00 00 00       	mov    $0x80,%edx
 8049093:	29 c2                	sub    %eax,%edx
 8049095:	89 14 9e             	mov    %edx,(%esi,%ebx,4)
 8049098:	83 c3 01             	add    $0x1,%ebx
 804909b:	39 fb                	cmp    %edi,%ebx
 804909d:	7c e5                	jl     8049084 <main+0x19c>
 804909f:	8b 7c 24 14          	mov    0x14(%esp),%edi
 80490a3:	83 7c 24 1c 00       	cmpl   $0x0,0x1c(%esp)
 80490a8:	7e 23                	jle    80490cd <main+0x1e5>
 80490aa:	bb 00 00 00 00       	mov    $0x0,%ebx
 80490af:	89 f8                	mov    %edi,%eax
 80490b1:	03 04 9e             	add    (%esi,%ebx,4),%eax
 80490b4:	89 44 24 04          	mov    %eax,0x4(%esp)
 80490b8:	8b 44 24 18          	mov    0x18(%esp),%eax
 80490bc:	89 04 24             	mov    %eax,(%esp)
 80490bf:	e8 53 fd ff ff       	call   8048e17 <launcher>
 80490c4:	83 c3 01             	add    $0x1,%ebx
 80490c7:	3b 5c 24 1c          	cmp    0x1c(%esp),%ebx
 80490cb:	7c e2                	jl     80490af <main+0x1c7>
 80490cd:	b8 00 00 00 00       	mov    $0x0,%eax
 80490d2:	83 c4 24             	add    $0x24,%esp
 80490d5:	5b                   	pop    %ebx
 80490d6:	5e                   	pop    %esi
 80490d7:	5f                   	pop    %edi
 80490d8:	89 ec                	mov    %ebp,%esp
 80490da:	5d                   	pop    %ebp
 80490db:	c3                   	ret    

080490dc <bang>:
 80490dc:	55                   	push   %ebp
 80490dd:	89 e5                	mov    %esp,%ebp
 80490df:	83 ec 18             	sub    $0x18,%esp
 80490e2:	a1 cc b1 04 08       	mov    0x804b1cc,%eax
 80490e7:	3b 05 c4 b1 04 08    	cmp    0x804b1c4,%eax
 80490ed:	75 1e                	jne    804910d <bang+0x31>
 80490ef:	89 44 24 04          	mov    %eax,0x4(%esp)
 80490f3:	c7 04 24 14 a2 04 08 	movl   $0x804a214,(%esp)
 80490fa:	e8 71 f8 ff ff       	call   8048970 <printf@plt>
 80490ff:	c7 04 24 02 00 00 00 	movl   $0x2,(%esp)
 8049106:	e8 95 00 00 00       	call   80491a0 <validate>
 804910b:	eb 10                	jmp    804911d <bang+0x41>
 804910d:	89 44 24 04          	mov    %eax,0x4(%esp)
 8049111:	c7 04 24 25 a0 04 08 	movl   $0x804a025,(%esp)
 8049118:	e8 53 f8 ff ff       	call   8048970 <printf@plt>
 804911d:	c7 04 24 00 00 00 00 	movl   $0x0,(%esp)
 8049124:	e8 07 f9 ff ff       	call   8048a30 <exit@plt>

08049129 <fizz>:
 8049129:	55                   	push   %ebp
 804912a:	89 e5                	mov    %esp,%ebp
 804912c:	83 ec 18             	sub    $0x18,%esp
 804912f:	8b 45 08             	mov    0x8(%ebp),%eax
 8049132:	3b 05 c4 b1 04 08    	cmp    0x804b1c4,%eax
 8049138:	75 1e                	jne    8049158 <fizz+0x2f>
 804913a:	89 44 24 04          	mov    %eax,0x4(%esp)
 804913e:	c7 04 24 43 a0 04 08 	movl   $0x804a043,(%esp)
 8049145:	e8 26 f8 ff ff       	call   8048970 <printf@plt>
 804914a:	c7 04 24 01 00 00 00 	movl   $0x1,(%esp)
 8049151:	e8 4a 00 00 00       	call   80491a0 <validate>
 8049156:	eb 10                	jmp    8049168 <fizz+0x3f>
 8049158:	89 44 24 04          	mov    %eax,0x4(%esp)
 804915c:	c7 04 24 3c a2 04 08 	movl   $0x804a23c,(%esp)
 8049163:	e8 08 f8 ff ff       	call   8048970 <printf@plt>
 8049168:	c7 04 24 00 00 00 00 	movl   $0x0,(%esp)
 804916f:	e8 bc f8 ff ff       	call   8048a30 <exit@plt>

08049174 <smoke>:
 8049174:	55                   	push   %ebp
 8049175:	89 e5                	mov    %esp,%ebp
 8049177:	83 ec 18             	sub    $0x18,%esp
 804917a:	c7 04 24 61 a0 04 08 	movl   $0x804a061,(%esp)
 8049181:	e8 4a f8 ff ff       	call   80489d0 <puts@plt>
 8049186:	c7 04 24 00 00 00 00 	movl   $0x0,(%esp)
 804918d:	e8 0e 00 00 00       	call   80491a0 <validate>
 8049192:	c7 04 24 00 00 00 00 	movl   $0x0,(%esp)
 8049199:	e8 92 f8 ff ff       	call   8048a30 <exit@plt>
 804919e:	90                   	nop
 804919f:	90                   	nop

080491a0 <validate>:
 80491a0:	55                   	push   %ebp
 80491a1:	89 e5                	mov    %esp,%ebp
 80491a3:	81 ec 28 40 00 00    	sub    $0x4028,%esp
 80491a9:	89 5d f8             	mov    %ebx,-0x8(%ebp)
 80491ac:	89 7d fc             	mov    %edi,-0x4(%ebp)
 80491af:	8b 5d 08             	mov    0x8(%ebp),%ebx
 80491b2:	83 3d b4 b1 04 08 00 	cmpl   $0x0,0x804b1b4
 80491b9:	75 11                	jne    80491cc <validate+0x2c>
 80491bb:	c7 04 24 a8 a2 04 08 	movl   $0x804a2a8,(%esp)
 80491c2:	e8 09 f8 ff ff       	call   80489d0 <puts@plt>
 80491c7:	e9 0f 01 00 00       	jmp    80492db <validate+0x13b>
 80491cc:	83 fb 04             	cmp    $0x4,%ebx
 80491cf:	76 11                	jbe    80491e2 <validate+0x42>
 80491d1:	c7 04 24 d4 a2 04 08 	movl   $0x804a2d4,(%esp)
 80491d8:	e8 f3 f7 ff ff       	call   80489d0 <puts@plt>
 80491dd:	e9 f9 00 00 00       	jmp    80492db <validate+0x13b>
 80491e2:	c7 05 c8 b1 04 08 01 	movl   $0x1,0x804b1c8
 80491e9:	00 00 00 
 80491ec:	ba 7c b1 04 08       	mov    $0x804b17c,%edx
 80491f1:	8b 04 9a             	mov    (%edx,%ebx,4),%eax
 80491f4:	83 e8 01             	sub    $0x1,%eax
 80491f7:	89 04 9a             	mov    %eax,(%edx,%ebx,4)
 80491fa:	85 c0                	test   %eax,%eax
 80491fc:	7e 11                	jle    804920f <validate+0x6f>
 80491fe:	c7 04 24 dc a3 04 08 	movl   $0x804a3dc,(%esp)
 8049205:	e8 c6 f7 ff ff       	call   80489d0 <puts@plt>
 804920a:	e9 cc 00 00 00       	jmp    80492db <validate+0x13b>
 804920f:	c7 04 24 e7 a3 04 08 	movl   $0x804a3e7,(%esp)
 8049216:	e8 b5 f7 ff ff       	call   80489d0 <puts@plt>
 804921b:	83 3d b8 b1 04 08 00 	cmpl   $0x0,0x804b1b8
 8049222:	0f 84 a7 00 00 00    	je     80492cf <validate+0x12f>
 8049228:	bf e0 c1 04 08       	mov    $0x804c1e0,%edi
 804922d:	b8 00 00 00 00       	mov    $0x0,%eax
 8049232:	b9 ff ff ff ff       	mov    $0xffffffff,%ecx
 8049237:	f2 ae                	repnz scas %es:(%edi),%al
 8049239:	f7 d1                	not    %ecx
 804923b:	83 c1 1f             	add    $0x1f,%ecx
 804923e:	81 f9 00 20 00 00    	cmp    $0x2000,%ecx
 8049244:	76 11                	jbe    8049257 <validate+0xb7>
 8049246:	c7 04 24 fc a2 04 08 	movl   $0x804a2fc,(%esp)
 804924d:	e8 7e f7 ff ff       	call   80489d0 <puts@plt>
 8049252:	e9 84 00 00 00       	jmp    80492db <validate+0x13b>
 8049257:	c7 44 24 10 e0 c1 04 	movl   $0x804c1e0,0x10(%esp)
 804925e:	08 
 804925f:	8b 3d c4 b1 04 08    	mov    0x804b1c4,%edi
 8049265:	89 7c 24 0c          	mov    %edi,0xc(%esp)
 8049269:	89 5c 24 08          	mov    %ebx,0x8(%esp)
 804926d:	c7 44 24 04 ed a3 04 	movl   $0x804a3ed,0x4(%esp)
 8049274:	08 
 8049275:	8d 9d f8 df ff ff    	lea    -0x2008(%ebp),%ebx
 804927b:	89 1c 24             	mov    %ebx,(%esp)
 804927e:	e8 ad f5 ff ff       	call   8048830 <sprintf@plt>
 8049283:	8d 85 f8 bf ff ff    	lea    -0x4008(%ebp),%eax
 8049289:	89 44 24 0c          	mov    %eax,0xc(%esp)
 804928d:	c7 44 24 08 00 00 00 	movl   $0x0,0x8(%esp)
 8049294:	00 
 8049295:	89 5c 24 04          	mov    %ebx,0x4(%esp)
 8049299:	8b 1d b4 b1 04 08    	mov    0x804b1b4,%ebx
 804929f:	89 1c 24             	mov    %ebx,(%esp)
 80492a2:	e8 91 0a 00 00       	call   8049d38 <driver_post>
 80492a7:	85 c0                	test   %eax,%eax
 80492a9:	75 0e                	jne    80492b9 <validate+0x119>
 80492ab:	c7 04 24 34 a3 04 08 	movl   $0x804a334,(%esp)
 80492b2:	e8 19 f7 ff ff       	call   80489d0 <puts@plt>
 80492b7:	eb 16                	jmp    80492cf <validate+0x12f>
 80492b9:	8d 85 f8 bf ff ff    	lea    -0x4008(%ebp),%eax
 80492bf:	89 44 24 04          	mov    %eax,0x4(%esp)
 80492c3:	c7 04 24 64 a3 04 08 	movl   $0x804a364,(%esp)
 80492ca:	e8 a1 f6 ff ff       	call   8048970 <printf@plt>
 80492cf:	c7 04 24 f6 a3 04 08 	movl   $0x804a3f6,(%esp)
 80492d6:	e8 f5 f6 ff ff       	call   80489d0 <puts@plt>
 80492db:	8b 5d f8             	mov    -0x8(%ebp),%ebx
 80492de:	8b 7d fc             	mov    -0x4(%ebp),%edi
 80492e1:	89 ec                	mov    %ebp,%esp
 80492e3:	5d                   	pop    %ebp
 80492e4:	c3                   	ret    

080492e5 <initialize_bomb>:
 80492e5:	55                   	push   %ebp
 80492e6:	89 e5                	mov    %esp,%ebp
 80492e8:	57                   	push   %edi
 80492e9:	56                   	push   %esi
 80492ea:	53                   	push   %ebx
 80492eb:	81 ec 1c 24 00 00    	sub    $0x241c,%esp
 80492f1:	83 3d bc b1 04 08 00 	cmpl   $0x0,0x804b1bc
 80492f8:	74 0c                	je     8049306 <initialize_bomb+0x21>
 80492fa:	c7 04 24 ff ff ff ff 	movl   $0xffffffff,(%esp)
 8049301:	e8 61 02 00 00       	call   8049567 <init_timeout>
 8049306:	83 3d b8 b1 04 08 00 	cmpl   $0x0,0x804b1b8
 804930d:	0f 84 9b 00 00 00    	je     80493ae <initialize_bomb+0xc9>
 8049313:	c7 44 24 04 00 04 00 	movl   $0x400,0x4(%esp)
 804931a:	00 
 804931b:	8d 85 e8 fb ff ff    	lea    -0x418(%ebp),%eax
 8049321:	89 04 24             	mov    %eax,(%esp)
 8049324:	e8 97 f6 ff ff       	call   80489c0 <gethostname@plt>
 8049329:	85 c0                	test   %eax,%eax
 804932b:	75 1b                	jne    8049348 <initialize_bomb+0x63>
 804932d:	a1 e0 b1 04 08       	mov    0x804b1e0,%eax
 8049332:	bb 00 00 00 00       	mov    $0x0,%ebx
 8049337:	8d b5 e8 fb ff ff    	lea    -0x418(%ebp),%esi
 804933d:	bf e0 b1 04 08       	mov    $0x804b1e0,%edi
 8049342:	85 c0                	test   %eax,%eax
 8049344:	75 1a                	jne    8049360 <initialize_bomb+0x7b>
 8049346:	eb 32                	jmp    804937a <initialize_bomb+0x95>
 8049348:	c7 04 24 a4 a3 04 08 	movl   $0x804a3a4,(%esp)
 804934f:	e8 7c f6 ff ff       	call   80489d0 <puts@plt>
 8049354:	c7 04 24 08 00 00 00 	movl   $0x8,(%esp)
 804935b:	e8 d0 f6 ff ff       	call   8048a30 <exit@plt>
 8049360:	89 74 24 04          	mov    %esi,0x4(%esp)
 8049364:	89 04 24             	mov    %eax,(%esp)
 8049367:	e8 14 f6 ff ff       	call   8048980 <strcasecmp@plt>
 804936c:	85 c0                	test   %eax,%eax
 804936e:	74 0a                	je     804937a <initialize_bomb+0x95>
 8049370:	83 c3 01             	add    $0x1,%ebx
 8049373:	8b 04 9f             	mov    (%edi,%ebx,4),%eax
 8049376:	85 c0                	test   %eax,%eax
 8049378:	75 e6                	jne    8049360 <initialize_bomb+0x7b>
 804937a:	8d 85 e8 db ff ff    	lea    -0x2418(%ebp),%eax
 8049380:	89 04 24             	mov    %eax,(%esp)
 8049383:	e8 38 00 00 00       	call   80493c0 <init_driver>
 8049388:	85 c0                	test   %eax,%eax
 804938a:	79 22                	jns    80493ae <initialize_bomb+0xc9>
 804938c:	8d 85 e8 db ff ff    	lea    -0x2418(%ebp),%eax
 8049392:	89 44 24 04          	mov    %eax,0x4(%esp)
 8049396:	c7 04 24 00 a4 04 08 	movl   $0x804a400,(%esp)
 804939d:	e8 ce f5 ff ff       	call   8048970 <printf@plt>
 80493a2:	c7 04 24 08 00 00 00 	movl   $0x8,(%esp)
 80493a9:	e8 82 f6 ff ff       	call   8048a30 <exit@plt>
 80493ae:	81 c4 1c 24 00 00    	add    $0x241c,%esp
 80493b4:	5b                   	pop    %ebx
 80493b5:	5e                   	pop    %esi
 80493b6:	5f                   	pop    %edi
 80493b7:	5d                   	pop    %ebp
 80493b8:	c3                   	ret    
 80493b9:	90                   	nop
 80493ba:	90                   	nop
 80493bb:	90                   	nop
 80493bc:	90                   	nop
 80493bd:	90                   	nop
 80493be:	90                   	nop
 80493bf:	90                   	nop

080493c0 <init_driver>:
 80493c0:	55                   	push   %ebp
 80493c1:	89 e5                	mov    %esp,%ebp
 80493c3:	57                   	push   %edi
 80493c4:	56                   	push   %esi
 80493c5:	53                   	push   %ebx
 80493c6:	83 ec 2c             	sub    $0x2c,%esp
 80493c9:	c7 44 24 04 01 00 00 	movl   $0x1,0x4(%esp)
 80493d0:	00 
 80493d1:	c7 04 24 0d 00 00 00 	movl   $0xd,(%esp)
 80493d8:	e8 b3 f4 ff ff       	call   8048890 <signal@plt>
 80493dd:	c7 44 24 04 01 00 00 	movl   $0x1,0x4(%esp)
 80493e4:	00 
 80493e5:	c7 04 24 1d 00 00 00 	movl   $0x1d,(%esp)
 80493ec:	e8 9f f4 ff ff       	call   8048890 <signal@plt>
 80493f1:	c7 44 24 04 01 00 00 	movl   $0x1,0x4(%esp)
 80493f8:	00 
 80493f9:	c7 04 24 1d 00 00 00 	movl   $0x1d,(%esp)
 8049400:	e8 8b f4 ff ff       	call   8048890 <signal@plt>
 8049405:	c7 44 24 08 00 00 00 	movl   $0x0,0x8(%esp)
 804940c:	00 
 804940d:	c7 44 24 04 01 00 00 	movl   $0x1,0x4(%esp)
 8049414:	00 
 8049415:	c7 04 24 02 00 00 00 	movl   $0x2,(%esp)
 804941c:	e8 ef f4 ff ff       	call   8048910 <socket@plt>
 8049421:	89 c7                	mov    %eax,%edi
 8049423:	85 c0                	test   %eax,%eax
 8049425:	79 51                	jns    8049478 <init_driver+0xb8>
 8049427:	8b 45 08             	mov    0x8(%ebp),%eax
 804942a:	c7 00 45 72 72 6f    	movl   $0x6f727245,(%eax)
 8049430:	c7 40 04 72 3a 20 43 	movl   $0x43203a72,0x4(%eax)
 8049437:	c7 40 08 6c 69 65 6e 	movl   $0x6e65696c,0x8(%eax)
 804943e:	c7 40 0c 74 20 75 6e 	movl   $0x6e752074,0xc(%eax)
 8049445:	c7 40 10 61 62 6c 65 	movl   $0x656c6261,0x10(%eax)
 804944c:	c7 40 14 20 74 6f 20 	movl   $0x206f7420,0x14(%eax)
 8049453:	c7 40 18 63 72 65 61 	movl   $0x61657263,0x18(%eax)
 804945a:	c7 40 1c 74 65 20 73 	movl   $0x73206574,0x1c(%eax)
 8049461:	c7 40 20 6f 63 6b 65 	movl   $0x656b636f,0x20(%eax)
 8049468:	66 c7 40 24 74 00    	movw   $0x74,0x24(%eax)
 804946e:	b8 ff ff ff ff       	mov    $0xffffffff,%eax
 8049473:	e9 e7 00 00 00       	jmp    804955f <init_driver+0x19f>
 8049478:	c7 04 24 15 a4 04 08 	movl   $0x804a415,(%esp)
 804947f:	e8 8c f5 ff ff       	call   8048a10 <gethostbyname@plt>
 8049484:	89 c6                	mov    %eax,%esi
 8049486:	85 c0                	test   %eax,%eax
 8049488:	75 2d                	jne    80494b7 <init_driver+0xf7>
 804948a:	c7 44 24 08 15 a4 04 	movl   $0x804a415,0x8(%esp)
 8049491:	08 
 8049492:	c7 44 24 04 6c a4 04 	movl   $0x804a46c,0x4(%esp)
 8049499:	08 
 804949a:	8b 45 08             	mov    0x8(%ebp),%eax
 804949d:	89 04 24             	mov    %eax,(%esp)
 80494a0:	e8 8b f3 ff ff       	call   8048830 <sprintf@plt>
 80494a5:	89 3c 24             	mov    %edi,(%esp)
 80494a8:	e8 f3 f4 ff ff       	call   80489a0 <close@plt>
 80494ad:	b8 ff ff ff ff       	mov    $0xffffffff,%eax
 80494b2:	e9 a8 00 00 00       	jmp    804955f <init_driver+0x19f>
 80494b7:	8d 5d d8             	lea    -0x28(%ebp),%ebx
 80494ba:	c7 03 00 00 00 00    	movl   $0x0,(%ebx)
 80494c0:	c7 43 04 00 00 00 00 	movl   $0x0,0x4(%ebx)
 80494c7:	c7 43 08 00 00 00 00 	movl   $0x0,0x8(%ebx)
 80494ce:	c7 43 0c 00 00 00 00 	movl   $0x0,0xc(%ebx)
 80494d5:	66 c7 45 d8 02 00    	movw   $0x2,-0x28(%ebp)
 80494db:	8b 40 0c             	mov    0xc(%eax),%eax
 80494de:	89 44 24 08          	mov    %eax,0x8(%esp)
 80494e2:	8d 45 dc             	lea    -0x24(%ebp),%eax
 80494e5:	89 44 24 04          	mov    %eax,0x4(%esp)
 80494e9:	8b 46 10             	mov    0x10(%esi),%eax
 80494ec:	8b 00                	mov    (%eax),%eax
 80494ee:	89 04 24             	mov    %eax,(%esp)
 80494f1:	e8 2a f4 ff ff       	call   8048920 <bcopy@plt>
 80494f6:	66 c7 45 da 4b 10    	movw   $0x104b,-0x26(%ebp)
 80494fc:	c7 44 24 08 10 00 00 	movl   $0x10,0x8(%esp)
 8049503:	00 
 8049504:	89 5c 24 04          	mov    %ebx,0x4(%esp)
 8049508:	89 3c 24             	mov    %edi,(%esp)
 804950b:	e8 40 f3 ff ff       	call   8048850 <connect@plt>
 8049510:	85 c0                	test   %eax,%eax
 8049512:	79 32                	jns    8049546 <init_driver+0x186>
 8049514:	c7 44 24 0c 10 4b 00 	movl   $0x4b10,0xc(%esp)
 804951b:	00 
 804951c:	c7 44 24 08 15 a4 04 	movl   $0x804a415,0x8(%esp)
 8049523:	08 
 8049524:	c7 44 24 04 98 a4 04 	movl   $0x804a498,0x4(%esp)
 804952b:	08 
 804952c:	8b 45 08             	mov    0x8(%ebp),%eax
 804952f:	89 04 24             	mov    %eax,(%esp)
 8049532:	e8 f9 f2 ff ff       	call   8048830 <sprintf@plt>
 8049537:	89 3c 24             	mov    %edi,(%esp)
 804953a:	e8 61 f4 ff ff       	call   80489a0 <close@plt>
 804953f:	b8 ff ff ff ff       	mov    $0xffffffff,%eax
 8049544:	eb 19                	jmp    804955f <init_driver+0x19f>
 8049546:	89 3c 24             	mov    %edi,(%esp)
 8049549:	e8 52 f4 ff ff       	call   80489a0 <close@plt>
 804954e:	8b 45 08             	mov    0x8(%ebp),%eax
 8049551:	66 c7 00 4f 4b       	movw   $0x4b4f,(%eax)
 8049556:	c6 40 02 00          	movb   $0x0,0x2(%eax)
 804955a:	b8 00 00 00 00       	mov    $0x0,%eax
 804955f:	83 c4 2c             	add    $0x2c,%esp
 8049562:	5b                   	pop    %ebx
 8049563:	5e                   	pop    %esi
 8049564:	5f                   	pop    %edi
 8049565:	5d                   	pop    %ebp
 8049566:	c3                   	ret    

08049567 <init_timeout>:
 8049567:	55                   	push   %ebp
 8049568:	89 e5                	mov    %esp,%ebp
 804956a:	53                   	push   %ebx
 804956b:	83 ec 14             	sub    $0x14,%esp
 804956e:	8b 5d 08             	mov    0x8(%ebp),%ebx
 8049571:	85 db                	test   %ebx,%ebx
 8049573:	74 25                	je     804959a <init_timeout+0x33>
 8049575:	85 db                	test   %ebx,%ebx
 8049577:	79 05                	jns    804957e <init_timeout+0x17>
 8049579:	bb 05 00 00 00       	mov    $0x5,%ebx
 804957e:	c7 44 24 04 c1 9d 04 	movl   $0x8049dc1,0x4(%esp)
 8049585:	08 
 8049586:	c7 04 24 0e 00 00 00 	movl   $0xe,(%esp)
 804958d:	e8 fe f2 ff ff       	call   8048890 <signal@plt>
 8049592:	89 1c 24             	mov    %ebx,(%esp)
 8049595:	e8 b6 f3 ff ff       	call   8048950 <alarm@plt>
 804959a:	83 c4 14             	add    $0x14,%esp
 804959d:	5b                   	pop    %ebx
 804959e:	5d                   	pop    %ebp
 804959f:	c3                   	ret    

080495a0 <rio_readlineb>:
 80495a0:	55                   	push   %ebp
 80495a1:	89 e5                	mov    %esp,%ebp
 80495a3:	57                   	push   %edi
 80495a4:	56                   	push   %esi
 80495a5:	53                   	push   %ebx
 80495a6:	83 ec 3c             	sub    $0x3c,%esp
 80495a9:	89 c3                	mov    %eax,%ebx
 80495ab:	89 4d c8             	mov    %ecx,-0x38(%ebp)
 80495ae:	89 55 d0             	mov    %edx,-0x30(%ebp)
 80495b1:	83 f9 01             	cmp    $0x1,%ecx
 80495b4:	0f 86 e0 00 00 00    	jbe    804969a <rio_readlineb+0xfa>
 80495ba:	8d 78 0c             	lea    0xc(%eax),%edi
 80495bd:	89 7d d4             	mov    %edi,-0x2c(%ebp)
 80495c0:	c7 45 cc 01 00 00 00 	movl   $0x1,-0x34(%ebp)
 80495c7:	eb 43                	jmp    804960c <rio_readlineb+0x6c>
 80495c9:	c7 44 24 08 00 20 00 	movl   $0x2000,0x8(%esp)
 80495d0:	00 
 80495d1:	89 7c 24 04          	mov    %edi,0x4(%esp)
 80495d5:	8b 03                	mov    (%ebx),%eax
 80495d7:	89 04 24             	mov    %eax,(%esp)
 80495da:	e8 21 f3 ff ff       	call   8048900 <read@plt>
 80495df:	89 43 04             	mov    %eax,0x4(%ebx)
 80495e2:	85 c0                	test   %eax,%eax
 80495e4:	79 14                	jns    80495fa <rio_readlineb+0x5a>
 80495e6:	e8 35 f2 ff ff       	call   8048820 <__errno_location@plt>
 80495eb:	83 38 04             	cmpl   $0x4,(%eax)
 80495ee:	66 90                	xchg   %ax,%ax
 80495f0:	74 1a                	je     804960c <rio_readlineb+0x6c>
 80495f2:	be ff ff ff ff       	mov    $0xffffffff,%esi
 80495f7:	90                   	nop
 80495f8:	eb 5b                	jmp    8049655 <rio_readlineb+0xb5>
 80495fa:	85 c0                	test   %eax,%eax
 80495fc:	8d 74 26 00          	lea    0x0(%esi,%eiz,1),%esi
 8049600:	0f 84 ac 00 00 00    	je     80496b2 <rio_readlineb+0x112>
 8049606:	8b 45 d4             	mov    -0x2c(%ebp),%eax
 8049609:	89 43 08             	mov    %eax,0x8(%ebx)
 804960c:	8b 73 04             	mov    0x4(%ebx),%esi
 804960f:	85 f6                	test   %esi,%esi
 8049611:	7e b6                	jle    80495c9 <rio_readlineb+0x29>
 8049613:	85 f6                	test   %esi,%esi
 8049615:	0f 85 9e 00 00 00    	jne    80496b9 <rio_readlineb+0x119>
 804961b:	8b 43 08             	mov    0x8(%ebx),%eax
 804961e:	89 74 24 08          	mov    %esi,0x8(%esp)
 8049622:	89 44 24 04          	mov    %eax,0x4(%esp)
 8049626:	8d 55 e7             	lea    -0x19(%ebp),%edx
 8049629:	89 14 24             	mov    %edx,(%esp)
 804962c:	e8 0f f3 ff ff       	call   8048940 <memcpy@plt>
 8049631:	01 73 08             	add    %esi,0x8(%ebx)
 8049634:	29 73 04             	sub    %esi,0x4(%ebx)
 8049637:	83 fe 01             	cmp    $0x1,%esi
 804963a:	75 19                	jne    8049655 <rio_readlineb+0xb5>
 804963c:	0f b6 75 e7          	movzbl -0x19(%ebp),%esi
 8049640:	89 f0                	mov    %esi,%eax
 8049642:	8b 55 d0             	mov    -0x30(%ebp),%edx
 8049645:	88 02                	mov    %al,(%edx)
 8049647:	83 c2 01             	add    $0x1,%edx
 804964a:	89 55 d0             	mov    %edx,-0x30(%ebp)
 804964d:	80 7d e7 0a          	cmpb   $0xa,-0x19(%ebp)
 8049651:	75 2f                	jne    8049682 <rio_readlineb+0xe2>
 8049653:	eb 4c                	jmp    80496a1 <rio_readlineb+0x101>
 8049655:	8b 5d cc             	mov    -0x34(%ebp),%ebx
 8049658:	85 f6                	test   %esi,%esi
 804965a:	74 0e                	je     804966a <rio_readlineb+0xca>
 804965c:	c7 45 cc ff ff ff ff 	movl   $0xffffffff,-0x34(%ebp)
 8049663:	90                   	nop
 8049664:	8d 74 26 00          	lea    0x0(%esi,%eiz,1),%esi
 8049668:	eb 3d                	jmp    80496a7 <rio_readlineb+0x107>
 804966a:	83 fb 01             	cmp    $0x1,%ebx
 804966d:	8d 76 00             	lea    0x0(%esi),%esi
 8049670:	75 2f                	jne    80496a1 <rio_readlineb+0x101>
 8049672:	c7 45 cc 00 00 00 00 	movl   $0x0,-0x34(%ebp)
 8049679:	8d b4 26 00 00 00 00 	lea    0x0(%esi,%eiz,1),%esi
 8049680:	eb 25                	jmp    80496a7 <rio_readlineb+0x107>
 8049682:	83 45 cc 01          	addl   $0x1,-0x34(%ebp)
 8049686:	8b 45 cc             	mov    -0x34(%ebp),%eax
 8049689:	39 45 c8             	cmp    %eax,-0x38(%ebp)
 804968c:	0f 87 7a ff ff ff    	ja     804960c <rio_readlineb+0x6c>
 8049692:	8d b6 00 00 00 00    	lea    0x0(%esi),%esi
 8049698:	eb 07                	jmp    80496a1 <rio_readlineb+0x101>
 804969a:	c7 45 cc 01 00 00 00 	movl   $0x1,-0x34(%ebp)
 80496a1:	8b 55 d0             	mov    -0x30(%ebp),%edx
 80496a4:	c6 02 00             	movb   $0x0,(%edx)
 80496a7:	8b 45 cc             	mov    -0x34(%ebp),%eax
 80496aa:	83 c4 3c             	add    $0x3c,%esp
 80496ad:	5b                   	pop    %ebx
 80496ae:	5e                   	pop    %esi
 80496af:	5f                   	pop    %edi
 80496b0:	5d                   	pop    %ebp
 80496b1:	c3                   	ret    
 80496b2:	be 00 00 00 00       	mov    $0x0,%esi
 80496b7:	eb 9c                	jmp    8049655 <rio_readlineb+0xb5>
 80496b9:	8b 43 08             	mov    0x8(%ebx),%eax
 80496bc:	0f b6 00             	movzbl (%eax),%eax
 80496bf:	88 45 e7             	mov    %al,-0x19(%ebp)
 80496c2:	83 43 08 01          	addl   $0x1,0x8(%ebx)
 80496c6:	83 6b 04 01          	subl   $0x1,0x4(%ebx)
 80496ca:	e9 6d ff ff ff       	jmp    804963c <rio_readlineb+0x9c>

080496cf <submitr>:
 80496cf:	55                   	push   %ebp
 80496d0:	89 e5                	mov    %esp,%ebp
 80496d2:	57                   	push   %edi
 80496d3:	56                   	push   %esi
 80496d4:	53                   	push   %ebx
 80496d5:	81 ec 6c a0 00 00    	sub    $0xa06c,%esp
 80496db:	8b 7d 08             	mov    0x8(%ebp),%edi
 80496de:	c7 85 c8 7f ff ff 00 	movl   $0x0,-0x8038(%ebp)
 80496e5:	00 00 00 
 80496e8:	c7 44 24 08 00 00 00 	movl   $0x0,0x8(%esp)
 80496ef:	00 
 80496f0:	c7 44 24 04 01 00 00 	movl   $0x1,0x4(%esp)
 80496f7:	00 
 80496f8:	c7 04 24 02 00 00 00 	movl   $0x2,(%esp)
 80496ff:	e8 0c f2 ff ff       	call   8048910 <socket@plt>
 8049704:	89 85 b0 5f ff ff    	mov    %eax,-0xa050(%ebp)
 804970a:	85 c0                	test   %eax,%eax
 804970c:	79 1b                	jns    8049729 <submitr+0x5a>
 804970e:	b8 c4 a4 04 08       	mov    $0x804a4c4,%eax
 8049713:	b9 26 00 00 00       	mov    $0x26,%ecx
 8049718:	8b 7d 20             	mov    0x20(%ebp),%edi
 804971b:	89 c6                	mov    %eax,%esi
 804971d:	f3 a4                	rep movsb %ds:(%esi),%es:(%edi)
 804971f:	b8 ff ff ff ff       	mov    $0xffffffff,%eax
 8049724:	e9 a5 05 00 00       	jmp    8049cce <submitr+0x5ff>
 8049729:	89 3c 24             	mov    %edi,(%esp)
 804972c:	e8 df f2 ff ff       	call   8048a10 <gethostbyname@plt>
 8049731:	89 c3                	mov    %eax,%ebx
 8049733:	85 c0                	test   %eax,%eax
 8049735:	75 2f                	jne    8049766 <submitr+0x97>
 8049737:	89 7c 24 08          	mov    %edi,0x8(%esp)
 804973b:	c7 44 24 04 6c a4 04 	movl   $0x804a46c,0x4(%esp)
 8049742:	08 
 8049743:	8b 45 20             	mov    0x20(%ebp),%eax
 8049746:	89 04 24             	mov    %eax,(%esp)
 8049749:	e8 e2 f0 ff ff       	call   8048830 <sprintf@plt>
 804974e:	8b 8d b0 5f ff ff    	mov    -0xa050(%ebp),%ecx
 8049754:	89 0c 24             	mov    %ecx,(%esp)
 8049757:	e8 44 f2 ff ff       	call   80489a0 <close@plt>
 804975c:	b8 ff ff ff ff       	mov    $0xffffffff,%eax
 8049761:	e9 68 05 00 00       	jmp    8049cce <submitr+0x5ff>
 8049766:	8d 75 d8             	lea    -0x28(%ebp),%esi
 8049769:	c7 06 00 00 00 00    	movl   $0x0,(%esi)
 804976f:	c7 46 04 00 00 00 00 	movl   $0x0,0x4(%esi)
 8049776:	c7 46 08 00 00 00 00 	movl   $0x0,0x8(%esi)
 804977d:	c7 46 0c 00 00 00 00 	movl   $0x0,0xc(%esi)
 8049784:	66 c7 45 d8 02 00    	movw   $0x2,-0x28(%ebp)
 804978a:	8b 40 0c             	mov    0xc(%eax),%eax
 804978d:	89 44 24 08          	mov    %eax,0x8(%esp)
 8049791:	8d 45 dc             	lea    -0x24(%ebp),%eax
 8049794:	89 44 24 04          	mov    %eax,0x4(%esp)
 8049798:	8b 43 10             	mov    0x10(%ebx),%eax
 804979b:	8b 00                	mov    (%eax),%eax
 804979d:	89 04 24             	mov    %eax,(%esp)
 80497a0:	e8 7b f1 ff ff       	call   8048920 <bcopy@plt>
 80497a5:	0f b7 5d 0c          	movzwl 0xc(%ebp),%ebx
 80497a9:	66 c1 cb 08          	ror    $0x8,%bx
 80497ad:	66 89 5d da          	mov    %bx,-0x26(%ebp)
 80497b1:	c7 44 24 08 10 00 00 	movl   $0x10,0x8(%esp)
 80497b8:	00 
 80497b9:	89 74 24 04          	mov    %esi,0x4(%esp)
 80497bd:	8b b5 b0 5f ff ff    	mov    -0xa050(%ebp),%esi
 80497c3:	89 34 24             	mov    %esi,(%esp)
 80497c6:	e8 85 f0 ff ff       	call   8048850 <connect@plt>
 80497cb:	85 c0                	test   %eax,%eax
 80497cd:	79 29                	jns    80497f8 <submitr+0x129>
 80497cf:	89 7c 24 08          	mov    %edi,0x8(%esp)
 80497d3:	c7 44 24 04 ec a4 04 	movl   $0x804a4ec,0x4(%esp)
 80497da:	08 
 80497db:	8b 7d 20             	mov    0x20(%ebp),%edi
 80497de:	89 3c 24             	mov    %edi,(%esp)
 80497e1:	e8 4a f0 ff ff       	call   8048830 <sprintf@plt>
 80497e6:	89 34 24             	mov    %esi,(%esp)
 80497e9:	e8 b2 f1 ff ff       	call   80489a0 <close@plt>
 80497ee:	b8 ff ff ff ff       	mov    $0xffffffff,%eax
 80497f3:	e9 d6 04 00 00       	jmp    8049cce <submitr+0x5ff>
 80497f8:	ba ff ff ff ff       	mov    $0xffffffff,%edx
 80497fd:	8b 7d 1c             	mov    0x1c(%ebp),%edi
 8049800:	b8 00 00 00 00       	mov    $0x0,%eax
 8049805:	89 d1                	mov    %edx,%ecx
 8049807:	f2 ae                	repnz scas %es:(%edi),%al
 8049809:	89 cb                	mov    %ecx,%ebx
 804980b:	f7 d3                	not    %ebx
 804980d:	8b 7d 10             	mov    0x10(%ebp),%edi
 8049810:	89 d1                	mov    %edx,%ecx
 8049812:	f2 ae                	repnz scas %es:(%edi),%al
 8049814:	89 8d b4 5f ff ff    	mov    %ecx,-0xa04c(%ebp)
 804981a:	8b 7d 14             	mov    0x14(%ebp),%edi
 804981d:	89 d1                	mov    %edx,%ecx
 804981f:	f2 ae                	repnz scas %es:(%edi),%al
 8049821:	89 ce                	mov    %ecx,%esi
 8049823:	f7 d6                	not    %esi
 8049825:	8b 7d 18             	mov    0x18(%ebp),%edi
 8049828:	89 d1                	mov    %edx,%ecx
 804982a:	f2 ae                	repnz scas %es:(%edi),%al
 804982c:	2b b5 b4 5f ff ff    	sub    -0xa04c(%ebp),%esi
 8049832:	29 ce                	sub    %ecx,%esi
 8049834:	8d 44 5b fd          	lea    -0x3(%ebx,%ebx,2),%eax
 8049838:	8d 44 06 7b          	lea    0x7b(%esi,%eax,1),%eax
 804983c:	3d 00 20 00 00       	cmp    $0x2000,%eax
 8049841:	76 7c                	jbe    80498bf <submitr+0x1f0>
 8049843:	8b 75 20             	mov    0x20(%ebp),%esi
 8049846:	c7 06 45 72 72 6f    	movl   $0x6f727245,(%esi)
 804984c:	c7 46 04 72 3a 20 52 	movl   $0x52203a72,0x4(%esi)
 8049853:	c7 46 08 65 73 75 6c 	movl   $0x6c757365,0x8(%esi)
 804985a:	c7 46 0c 74 20 73 74 	movl   $0x74732074,0xc(%esi)
 8049861:	c7 46 10 72 69 6e 67 	movl   $0x676e6972,0x10(%esi)
 8049868:	c7 46 14 20 74 6f 6f 	movl   $0x6f6f7420,0x14(%esi)
 804986f:	c7 46 18 20 6c 61 72 	movl   $0x72616c20,0x18(%esi)
 8049876:	c7 46 1c 67 65 2e 20 	movl   $0x202e6567,0x1c(%esi)
 804987d:	c7 46 20 49 6e 63 72 	movl   $0x72636e49,0x20(%esi)
 8049884:	c7 46 24 65 61 73 65 	movl   $0x65736165,0x24(%esi)
 804988b:	c7 46 28 20 53 55 42 	movl   $0x42555320,0x28(%esi)
 8049892:	c7 46 2c 4d 49 54 52 	movl   $0x5254494d,0x2c(%esi)
 8049899:	c7 46 30 5f 4d 41 58 	movl   $0x58414d5f,0x30(%esi)
 80498a0:	c7 46 34 42 55 46 00 	movl   $0x465542,0x34(%esi)
 80498a7:	8b bd b0 5f ff ff    	mov    -0xa050(%ebp),%edi
 80498ad:	89 3c 24             	mov    %edi,(%esp)
 80498b0:	e8 eb f0 ff ff       	call   80489a0 <close@plt>
 80498b5:	b8 ff ff ff ff       	mov    $0xffffffff,%eax
 80498ba:	e9 0f 04 00 00       	jmp    8049cce <submitr+0x5ff>
 80498bf:	8d 95 cc 9f ff ff    	lea    -0x6034(%ebp),%edx
 80498c5:	b9 00 08 00 00       	mov    $0x800,%ecx
 80498ca:	b8 00 00 00 00       	mov    $0x0,%eax
 80498cf:	89 d7                	mov    %edx,%edi
 80498d1:	f3 ab                	rep stos %eax,%es:(%edi)
 80498d3:	8b 7d 1c             	mov    0x1c(%ebp),%edi
 80498d6:	b9 ff ff ff ff       	mov    $0xffffffff,%ecx
 80498db:	f2 ae                	repnz scas %es:(%edi),%al
 80498dd:	f7 d1                	not    %ecx
 80498df:	89 cf                	mov    %ecx,%edi
 80498e1:	83 ef 01             	sub    $0x1,%edi
 80498e4:	0f 84 ef 03 00 00    	je     8049cd9 <submitr+0x60a>
 80498ea:	89 d6                	mov    %edx,%esi
 80498ec:	bb 00 00 00 00       	mov    $0x0,%ebx
 80498f1:	89 bd b4 5f ff ff    	mov    %edi,-0xa04c(%ebp)
 80498f7:	8b 7d 1c             	mov    0x1c(%ebp),%edi
 80498fa:	0f b6 04 1f          	movzbl (%edi,%ebx,1),%eax
 80498fe:	3c 2a                	cmp    $0x2a,%al
 8049900:	74 28                	je     804992a <submitr+0x25b>
 8049902:	3c 2d                	cmp    $0x2d,%al
 8049904:	74 24                	je     804992a <submitr+0x25b>
 8049906:	3c 2e                	cmp    $0x2e,%al
 8049908:	74 20                	je     804992a <submitr+0x25b>
 804990a:	3c 5f                	cmp    $0x5f,%al
 804990c:	8d 74 26 00          	lea    0x0(%esi,%eiz,1),%esi
 8049910:	74 18                	je     804992a <submitr+0x25b>
 8049912:	8d 50 d0             	lea    -0x30(%eax),%edx
 8049915:	80 fa 09             	cmp    $0x9,%dl
 8049918:	76 10                	jbe    804992a <submitr+0x25b>
 804991a:	8d 50 bf             	lea    -0x41(%eax),%edx
 804991d:	80 fa 19             	cmp    $0x19,%dl
 8049920:	76 08                	jbe    804992a <submitr+0x25b>
 8049922:	8d 50 9f             	lea    -0x61(%eax),%edx
 8049925:	80 fa 19             	cmp    $0x19,%dl
 8049928:	77 07                	ja     8049931 <submitr+0x262>
 804992a:	88 06                	mov    %al,(%esi)
 804992c:	83 c6 01             	add    $0x1,%esi
 804992f:	eb 55                	jmp    8049986 <submitr+0x2b7>
 8049931:	3c 20                	cmp    $0x20,%al
 8049933:	75 08                	jne    804993d <submitr+0x26e>
 8049935:	c6 06 2b             	movb   $0x2b,(%esi)
 8049938:	83 c6 01             	add    $0x1,%esi
 804993b:	eb 49                	jmp    8049986 <submitr+0x2b7>
 804993d:	8d 50 e0             	lea    -0x20(%eax),%edx
 8049940:	80 fa 5f             	cmp    $0x5f,%dl
 8049943:	76 04                	jbe    8049949 <submitr+0x27a>
 8049945:	3c 09                	cmp    $0x9,%al
 8049947:	75 51                	jne    804999a <submitr+0x2cb>
 8049949:	0f b6 c0             	movzbl %al,%eax
 804994c:	89 44 24 08          	mov    %eax,0x8(%esp)
 8049950:	c7 44 24 04 2a a4 04 	movl   $0x804a42a,0x4(%esp)
 8049957:	08 
 8049958:	8d 85 c0 5f ff ff    	lea    -0xa040(%ebp),%eax
 804995e:	89 04 24             	mov    %eax,(%esp)
 8049961:	e8 ca ee ff ff       	call   8048830 <sprintf@plt>
 8049966:	0f b6 8d c0 5f ff ff 	movzbl -0xa040(%ebp),%ecx
 804996d:	88 0e                	mov    %cl,(%esi)
 804996f:	0f b6 85 c1 5f ff ff 	movzbl -0xa03f(%ebp),%eax
 8049976:	88 46 01             	mov    %al,0x1(%esi)
 8049979:	0f b6 8d c2 5f ff ff 	movzbl -0xa03e(%ebp),%ecx
 8049980:	88 4e 02             	mov    %cl,0x2(%esi)
 8049983:	83 c6 03             	add    $0x3,%esi
 8049986:	83 c3 01             	add    $0x1,%ebx
 8049989:	3b 9d b4 5f ff ff    	cmp    -0xa04c(%ebp),%ebx
 804998f:	0f 85 65 ff ff ff    	jne    80498fa <submitr+0x22b>
 8049995:	e9 3f 03 00 00       	jmp    8049cd9 <submitr+0x60a>
 804999a:	b8 14 a5 04 08       	mov    $0x804a514,%eax
 804999f:	b9 43 00 00 00       	mov    $0x43,%ecx
 80499a4:	8b 7d 20             	mov    0x20(%ebp),%edi
 80499a7:	89 c6                	mov    %eax,%esi
 80499a9:	f3 a4                	rep movsb %ds:(%esi),%es:(%edi)
 80499ab:	8b 85 b0 5f ff ff    	mov    -0xa050(%ebp),%eax
 80499b1:	89 04 24             	mov    %eax,(%esp)
 80499b4:	e8 e7 ef ff ff       	call   80489a0 <close@plt>
 80499b9:	b8 ff ff ff ff       	mov    $0xffffffff,%eax
 80499be:	e9 0b 03 00 00       	jmp    8049cce <submitr+0x5ff>
 80499c3:	01 df                	add    %ebx,%edi
 80499c5:	89 74 24 08          	mov    %esi,0x8(%esp)
 80499c9:	89 7c 24 04          	mov    %edi,0x4(%esp)
 80499cd:	8b 8d b0 5f ff ff    	mov    -0xa050(%ebp),%ecx
 80499d3:	89 0c 24             	mov    %ecx,(%esp)
 80499d6:	e8 e5 ee ff ff       	call   80488c0 <write@plt>
 80499db:	89 c3                	mov    %eax,%ebx
 80499dd:	85 c0                	test   %eax,%eax
 80499df:	7f 16                	jg     80499f7 <submitr+0x328>
 80499e1:	e8 3a ee ff ff       	call   8048820 <__errno_location@plt>
 80499e6:	83 38 04             	cmpl   $0x4,(%eax)
 80499e9:	8d b4 26 00 00 00 00 	lea    0x0(%esi,%eiz,1),%esi
 80499f0:	75 19                	jne    8049a0b <submitr+0x33c>
 80499f2:	bb 00 00 00 00       	mov    $0x0,%ebx
 80499f7:	29 de                	sub    %ebx,%esi
 80499f9:	8d b4 26 00 00 00 00 	lea    0x0(%esi,%eiz,1),%esi
 8049a00:	75 c1                	jne    80499c3 <submitr+0x2f4>
 8049a02:	83 bd b4 5f ff ff 00 	cmpl   $0x0,-0xa04c(%ebp)
 8049a09:	79 64                	jns    8049a6f <submitr+0x3a0>
 8049a0b:	8b 7d 20             	mov    0x20(%ebp),%edi
 8049a0e:	be 58 a5 04 08       	mov    $0x804a558,%esi
 8049a13:	b8 2c 00 00 00       	mov    $0x2c,%eax
 8049a18:	f7 c7 01 00 00 00    	test   $0x1,%edi
 8049a1e:	74 04                	je     8049a24 <submitr+0x355>
 8049a20:	a4                   	movsb  %ds:(%esi),%es:(%edi)
 8049a21:	83 e8 01             	sub    $0x1,%eax
 8049a24:	f7 c7 02 00 00 00    	test   $0x2,%edi
 8049a2a:	74 05                	je     8049a31 <submitr+0x362>
 8049a2c:	66 a5                	movsw  %ds:(%esi),%es:(%edi)
 8049a2e:	83 e8 02             	sub    $0x2,%eax
 8049a31:	89 c1                	mov    %eax,%ecx
 8049a33:	c1 e9 02             	shr    $0x2,%ecx
 8049a36:	f3 a5                	rep movsl %ds:(%esi),%es:(%edi)
 8049a38:	ba 00 00 00 00       	mov    $0x0,%edx
 8049a3d:	a8 02                	test   $0x2,%al
 8049a3f:	74 0b                	je     8049a4c <submitr+0x37d>
 8049a41:	0f b7 0c 16          	movzwl (%esi,%edx,1),%ecx
 8049a45:	66 89 0c 17          	mov    %cx,(%edi,%edx,1)
 8049a49:	83 c2 02             	add    $0x2,%edx
 8049a4c:	a8 01                	test   $0x1,%al
 8049a4e:	74 07                	je     8049a57 <submitr+0x388>
 8049a50:	0f b6 04 16          	movzbl (%esi,%edx,1),%eax
 8049a54:	88 04 17             	mov    %al,(%edi,%edx,1)
 8049a57:	8b b5 b0 5f ff ff    	mov    -0xa050(%ebp),%esi
 8049a5d:	89 34 24             	mov    %esi,(%esp)
 8049a60:	e8 3b ef ff ff       	call   80489a0 <close@plt>
 8049a65:	b8 ff ff ff ff       	mov    $0xffffffff,%eax
 8049a6a:	e9 5f 02 00 00       	jmp    8049cce <submitr+0x5ff>
 8049a6f:	8b bd b0 5f ff ff    	mov    -0xa050(%ebp),%edi
 8049a75:	89 bd cc df ff ff    	mov    %edi,-0x2034(%ebp)
 8049a7b:	c7 85 d0 df ff ff 00 	movl   $0x0,-0x2030(%ebp)
 8049a82:	00 00 00 
 8049a85:	8d 85 cc df ff ff    	lea    -0x2034(%ebp),%eax
 8049a8b:	8d 95 d8 df ff ff    	lea    -0x2028(%ebp),%edx
 8049a91:	89 95 d4 df ff ff    	mov    %edx,-0x202c(%ebp)
 8049a97:	8d 95 cc bf ff ff    	lea    -0x4034(%ebp),%edx
 8049a9d:	b9 00 20 00 00       	mov    $0x2000,%ecx
 8049aa2:	e8 f9 fa ff ff       	call   80495a0 <rio_readlineb>
 8049aa7:	85 c0                	test   %eax,%eax
 8049aa9:	7f 29                	jg     8049ad4 <submitr+0x405>
 8049aab:	b8 84 a5 04 08       	mov    $0x804a584,%eax
 8049ab0:	b9 36 00 00 00       	mov    $0x36,%ecx
 8049ab5:	8b 7d 20             	mov    0x20(%ebp),%edi
 8049ab8:	89 c6                	mov    %eax,%esi
 8049aba:	f3 a4                	rep movsb %ds:(%esi),%es:(%edi)
 8049abc:	8b 85 b0 5f ff ff    	mov    -0xa050(%ebp),%eax
 8049ac2:	89 04 24             	mov    %eax,(%esp)
 8049ac5:	e8 d6 ee ff ff       	call   80489a0 <close@plt>
 8049aca:	b8 ff ff ff ff       	mov    $0xffffffff,%eax
 8049acf:	e9 fa 01 00 00       	jmp    8049cce <submitr+0x5ff>
 8049ad4:	8d bd cc bf ff ff    	lea    -0x4034(%ebp),%edi
 8049ada:	8d 85 c8 5f ff ff    	lea    -0xa038(%ebp),%eax
 8049ae0:	89 44 24 10          	mov    %eax,0x10(%esp)
 8049ae4:	8d 85 c8 7f ff ff    	lea    -0x8038(%ebp),%eax
 8049aea:	89 44 24 0c          	mov    %eax,0xc(%esp)
 8049aee:	8d 85 cc 7f ff ff    	lea    -0x8034(%ebp),%eax
 8049af4:	89 44 24 08          	mov    %eax,0x8(%esp)
 8049af8:	c7 44 24 04 31 a4 04 	movl   $0x804a431,0x4(%esp)
 8049aff:	08 
 8049b00:	89 3c 24             	mov    %edi,(%esp)
 8049b03:	e8 e8 ee ff ff       	call   80489f0 <sscanf@plt>
 8049b08:	8b 85 c8 7f ff ff    	mov    -0x8038(%ebp),%eax
 8049b0e:	8d 9d cc bf ff ff    	lea    -0x4034(%ebp),%ebx
 8049b14:	8d b5 cc df ff ff    	lea    -0x2034(%ebp),%esi
 8049b1a:	3d c8 00 00 00       	cmp    $0xc8,%eax
 8049b1f:	0f 84 bd 00 00 00    	je     8049be2 <submitr+0x513>
 8049b25:	8d 95 c8 5f ff ff    	lea    -0xa038(%ebp),%edx
 8049b2b:	89 54 24 0c          	mov    %edx,0xc(%esp)
 8049b2f:	89 44 24 08          	mov    %eax,0x8(%esp)
 8049b33:	c7 44 24 04 bc a5 04 	movl   $0x804a5bc,0x4(%esp)
 8049b3a:	08 
 8049b3b:	8b 4d 20             	mov    0x20(%ebp),%ecx
 8049b3e:	89 0c 24             	mov    %ecx,(%esp)
 8049b41:	e8 ea ec ff ff       	call   8048830 <sprintf@plt>
 8049b46:	8b b5 b0 5f ff ff    	mov    -0xa050(%ebp),%esi
 8049b4c:	89 34 24             	mov    %esi,(%esp)
 8049b4f:	e8 4c ee ff ff       	call   80489a0 <close@plt>
 8049b54:	b8 ff ff ff ff       	mov    $0xffffffff,%eax
 8049b59:	e9 70 01 00 00       	jmp    8049cce <submitr+0x5ff>
 8049b5e:	b9 00 20 00 00       	mov    $0x2000,%ecx
 8049b63:	89 da                	mov    %ebx,%edx
 8049b65:	89 f0                	mov    %esi,%eax
 8049b67:	e8 34 fa ff ff       	call   80495a0 <rio_readlineb>
 8049b6c:	85 c0                	test   %eax,%eax
 8049b6e:	7f 72                	jg     8049be2 <submitr+0x513>
 8049b70:	8b 7d 20             	mov    0x20(%ebp),%edi
 8049b73:	c7 07 45 72 72 6f    	movl   $0x6f727245,(%edi)
 8049b79:	c7 47 04 72 3a 20 43 	movl   $0x43203a72,0x4(%edi)
 8049b80:	c7 47 08 6c 69 65 6e 	movl   $0x6e65696c,0x8(%edi)
 8049b87:	c7 47 0c 74 20 75 6e 	movl   $0x6e752074,0xc(%edi)
 8049b8e:	c7 47 10 61 62 6c 65 	movl   $0x656c6261,0x10(%edi)
 8049b95:	c7 47 14 20 74 6f 20 	movl   $0x206f7420,0x14(%edi)
 8049b9c:	c7 47 18 72 65 61 64 	movl   $0x64616572,0x18(%edi)
 8049ba3:	c7 47 1c 20 68 65 61 	movl   $0x61656820,0x1c(%edi)
 8049baa:	c7 47 20 64 65 72 73 	movl   $0x73726564,0x20(%edi)
 8049bb1:	c7 47 24 20 66 72 6f 	movl   $0x6f726620,0x24(%edi)
 8049bb8:	c7 47 28 6d 20 73 65 	movl   $0x6573206d,0x28(%edi)
 8049bbf:	c7 47 2c 72 76 65 72 	movl   $0x72657672,0x2c(%edi)
 8049bc6:	c6 47 30 00          	movb   $0x0,0x30(%edi)
 8049bca:	8b 85 b0 5f ff ff    	mov    -0xa050(%ebp),%eax
 8049bd0:	89 04 24             	mov    %eax,(%esp)
 8049bd3:	e8 c8 ed ff ff       	call   80489a0 <close@plt>
 8049bd8:	b8 ff ff ff ff       	mov    $0xffffffff,%eax
 8049bdd:	e9 ec 00 00 00       	jmp    8049cce <submitr+0x5ff>
 8049be2:	b8 42 a4 04 08       	mov    $0x804a442,%eax
 8049be7:	0f b6 13             	movzbl (%ebx),%edx
 8049bea:	3a 10                	cmp    (%eax),%dl
 8049bec:	0f 85 6c ff ff ff    	jne    8049b5e <submitr+0x48f>
 8049bf2:	0f b6 53 01          	movzbl 0x1(%ebx),%edx
 8049bf6:	3a 50 01             	cmp    0x1(%eax),%dl
 8049bf9:	0f 85 5f ff ff ff    	jne    8049b5e <submitr+0x48f>
 8049bff:	0f b6 53 02          	movzbl 0x2(%ebx),%edx
 8049c03:	3a 50 02             	cmp    0x2(%eax),%dl
 8049c06:	0f 85 52 ff ff ff    	jne    8049b5e <submitr+0x48f>
 8049c0c:	8d 95 cc bf ff ff    	lea    -0x4034(%ebp),%edx
 8049c12:	8d 85 cc df ff ff    	lea    -0x2034(%ebp),%eax
 8049c18:	b9 00 20 00 00       	mov    $0x2000,%ecx
 8049c1d:	e8 7e f9 ff ff       	call   80495a0 <rio_readlineb>
 8049c22:	85 c0                	test   %eax,%eax
 8049c24:	7f 61                	jg     8049c87 <submitr+0x5b8>
 8049c26:	8b 7d 20             	mov    0x20(%ebp),%edi
 8049c29:	be ec a5 04 08       	mov    $0x804a5ec,%esi
 8049c2e:	b8 38 00 00 00       	mov    $0x38,%eax
 8049c33:	f7 c7 01 00 00 00    	test   $0x1,%edi
 8049c39:	74 04                	je     8049c3f <submitr+0x570>
 8049c3b:	a4                   	movsb  %ds:(%esi),%es:(%edi)
 8049c3c:	83 e8 01             	sub    $0x1,%eax
 8049c3f:	f7 c7 02 00 00 00    	test   $0x2,%edi
 8049c45:	74 05                	je     8049c4c <submitr+0x57d>
 8049c47:	66 a5                	movsw  %ds:(%esi),%es:(%edi)
 8049c49:	83 e8 02             	sub    $0x2,%eax
 8049c4c:	89 c1                	mov    %eax,%ecx
 8049c4e:	c1 e9 02             	shr    $0x2,%ecx
 8049c51:	f3 a5                	rep movsl %ds:(%esi),%es:(%edi)
 8049c53:	ba 00 00 00 00       	mov    $0x0,%edx
 8049c58:	a8 02                	test   $0x2,%al
 8049c5a:	74 0b                	je     8049c67 <submitr+0x598>
 8049c5c:	0f b7 0c 16          	movzwl (%esi,%edx,1),%ecx
 8049c60:	66 89 0c 17          	mov    %cx,(%edi,%edx,1)
 8049c64:	83 c2 02             	add    $0x2,%edx
 8049c67:	a8 01                	test   $0x1,%al
 8049c69:	74 07                	je     8049c72 <submitr+0x5a3>
 8049c6b:	0f b6 04 16          	movzbl (%esi,%edx,1),%eax
 8049c6f:	88 04 17             	mov    %al,(%edi,%edx,1)
 8049c72:	8b 8d b0 5f ff ff    	mov    -0xa050(%ebp),%ecx
 8049c78:	89 0c 24             	mov    %ecx,(%esp)
 8049c7b:	e8 20 ed ff ff       	call   80489a0 <close@plt>
 8049c80:	b8 ff ff ff ff       	mov    $0xffffffff,%eax
 8049c85:	eb 47                	jmp    8049cce <submitr+0x5ff>
 8049c87:	89 7c 24 04          	mov    %edi,0x4(%esp)
 8049c8b:	8b 75 20             	mov    0x20(%ebp),%esi
 8049c8e:	89 34 24             	mov    %esi,(%esp)
 8049c91:	e8 ca ec ff ff       	call   8048960 <strcpy@plt>
 8049c96:	8b bd b0 5f ff ff    	mov    -0xa050(%ebp),%edi
 8049c9c:	89 3c 24             	mov    %edi,(%esp)
 8049c9f:	e8 fc ec ff ff       	call   80489a0 <close@plt>
 8049ca4:	b8 45 a4 04 08       	mov    $0x804a445,%eax
 8049ca9:	0f b6 16             	movzbl (%esi),%edx
 8049cac:	3a 10                	cmp    (%eax),%dl
 8049cae:	75 19                	jne    8049cc9 <submitr+0x5fa>
 8049cb0:	0f b6 56 01          	movzbl 0x1(%esi),%edx
 8049cb4:	3a 50 01             	cmp    0x1(%eax),%dl
 8049cb7:	75 10                	jne    8049cc9 <submitr+0x5fa>
 8049cb9:	0f b6 56 02          	movzbl 0x2(%esi),%edx
 8049cbd:	3a 50 02             	cmp    0x2(%eax),%dl
 8049cc0:	75 07                	jne    8049cc9 <submitr+0x5fa>
 8049cc2:	b8 00 00 00 00       	mov    $0x0,%eax
 8049cc7:	eb 05                	jmp    8049cce <submitr+0x5ff>
 8049cc9:	b8 ff ff ff ff       	mov    $0xffffffff,%eax
 8049cce:	81 c4 6c a0 00 00    	add    $0xa06c,%esp
 8049cd4:	5b                   	pop    %ebx
 8049cd5:	5e                   	pop    %esi
 8049cd6:	5f                   	pop    %edi
 8049cd7:	5d                   	pop    %ebp
 8049cd8:	c3                   	ret    
 8049cd9:	8d 85 cc 9f ff ff    	lea    -0x6034(%ebp),%eax
 8049cdf:	89 44 24 14          	mov    %eax,0x14(%esp)
 8049ce3:	8b 45 18             	mov    0x18(%ebp),%eax
 8049ce6:	89 44 24 10          	mov    %eax,0x10(%esp)
 8049cea:	8b 4d 14             	mov    0x14(%ebp),%ecx
 8049ced:	89 4c 24 0c          	mov    %ecx,0xc(%esp)
 8049cf1:	8b 75 10             	mov    0x10(%ebp),%esi
 8049cf4:	89 74 24 08          	mov    %esi,0x8(%esp)
 8049cf8:	c7 44 24 04 24 a6 04 	movl   $0x804a624,0x4(%esp)
 8049cff:	08 
 8049d00:	8d bd cc bf ff ff    	lea    -0x4034(%ebp),%edi
 8049d06:	89 3c 24             	mov    %edi,(%esp)
 8049d09:	e8 22 eb ff ff       	call   8048830 <sprintf@plt>
 8049d0e:	b8 00 00 00 00       	mov    $0x0,%eax
 8049d13:	b9 ff ff ff ff       	mov    $0xffffffff,%ecx
 8049d18:	f2 ae                	repnz scas %es:(%edi),%al
 8049d1a:	f7 d1                	not    %ecx
 8049d1c:	83 e9 01             	sub    $0x1,%ecx
 8049d1f:	89 8d b4 5f ff ff    	mov    %ecx,-0xa04c(%ebp)
 8049d25:	0f 84 44 fd ff ff    	je     8049a6f <submitr+0x3a0>
 8049d2b:	89 ce                	mov    %ecx,%esi
 8049d2d:	8d bd cc bf ff ff    	lea    -0x4034(%ebp),%edi
 8049d33:	e9 8d fc ff ff       	jmp    80499c5 <submitr+0x2f6>

08049d38 <driver_post>:
 8049d38:	55                   	push   %ebp
 8049d39:	89 e5                	mov    %esp,%ebp
 8049d3b:	53                   	push   %ebx
 8049d3c:	83 ec 24             	sub    $0x24,%esp
 8049d3f:	8b 45 08             	mov    0x8(%ebp),%eax
 8049d42:	8b 55 0c             	mov    0xc(%ebp),%edx
 8049d45:	8b 5d 14             	mov    0x14(%ebp),%ebx
 8049d48:	83 7d 10 00          	cmpl   $0x0,0x10(%ebp)
 8049d4c:	74 20                	je     8049d6e <driver_post+0x36>
 8049d4e:	89 54 24 04          	mov    %edx,0x4(%esp)
 8049d52:	c7 04 24 48 a4 04 08 	movl   $0x804a448,(%esp)
 8049d59:	e8 12 ec ff ff       	call   8048970 <printf@plt>
 8049d5e:	66 c7 03 4f 4b       	movw   $0x4b4f,(%ebx)
 8049d63:	c6 43 02 00          	movb   $0x0,0x2(%ebx)
 8049d67:	bb 00 00 00 00       	mov    $0x0,%ebx
 8049d6c:	eb 4b                	jmp    8049db9 <driver_post+0x81>
 8049d6e:	85 c0                	test   %eax,%eax
 8049d70:	74 39                	je     8049dab <driver_post+0x73>
 8049d72:	80 38 00             	cmpb   $0x0,(%eax)
 8049d75:	74 34                	je     8049dab <driver_post+0x73>
 8049d77:	89 5c 24 18          	mov    %ebx,0x18(%esp)
 8049d7b:	89 54 24 14          	mov    %edx,0x14(%esp)
 8049d7f:	c7 44 24 10 5f a4 04 	movl   $0x804a45f,0x10(%esp)
 8049d86:	08 
 8049d87:	89 44 24 0c          	mov    %eax,0xc(%esp)
 8049d8b:	c7 44 24 08 66 a4 04 	movl   $0x804a466,0x8(%esp)
 8049d92:	08 
 8049d93:	c7 44 24 04 10 4b 00 	movl   $0x4b10,0x4(%esp)
 8049d9a:	00 
 8049d9b:	c7 04 24 15 a4 04 08 	movl   $0x804a415,(%esp)
 8049da2:	e8 28 f9 ff ff       	call   80496cf <submitr>
 8049da7:	89 c3                	mov    %eax,%ebx
 8049da9:	eb 0e                	jmp    8049db9 <driver_post+0x81>
 8049dab:	66 c7 03 4f 4b       	movw   $0x4b4f,(%ebx)
 8049db0:	c6 43 02 00          	movb   $0x0,0x2(%ebx)
 8049db4:	bb 00 00 00 00       	mov    $0x0,%ebx
 8049db9:	89 d8                	mov    %ebx,%eax
 8049dbb:	83 c4 24             	add    $0x24,%esp
 8049dbe:	5b                   	pop    %ebx
 8049dbf:	5d                   	pop    %ebp
 8049dc0:	c3                   	ret    

08049dc1 <sigalrm_handler>:
 8049dc1:	55                   	push   %ebp
 8049dc2:	89 e5                	mov    %esp,%ebp
 8049dc4:	83 ec 18             	sub    $0x18,%esp
 8049dc7:	c7 44 24 04 05 00 00 	movl   $0x5,0x4(%esp)
 8049dce:	00 
 8049dcf:	c7 04 24 70 a6 04 08 	movl   $0x804a670,(%esp)
 8049dd6:	e8 95 eb ff ff       	call   8048970 <printf@plt>
 8049ddb:	c7 04 24 01 00 00 00 	movl   $0x1,(%esp)
 8049de2:	e8 49 ec ff ff       	call   8048a30 <exit@plt>
 8049de7:	90                   	nop

08049de8 <hash>:
 8049de8:	55                   	push   %ebp
 8049de9:	89 e5                	mov    %esp,%ebp
 8049deb:	53                   	push   %ebx
 8049dec:	8b 55 08             	mov    0x8(%ebp),%edx
 8049def:	0f b6 02             	movzbl (%edx),%eax
 8049df2:	bb 00 00 00 00       	mov    $0x0,%ebx
 8049df7:	84 c0                	test   %al,%al
 8049df9:	74 13                	je     8049e0e <hash+0x26>
 8049dfb:	6b db 67             	imul   $0x67,%ebx,%ebx
 8049dfe:	0f be c0             	movsbl %al,%eax
 8049e01:	8d 1c 18             	lea    (%eax,%ebx,1),%ebx
 8049e04:	83 c2 01             	add    $0x1,%edx
 8049e07:	0f b6 02             	movzbl (%edx),%eax
 8049e0a:	84 c0                	test   %al,%al
 8049e0c:	75 ed                	jne    8049dfb <hash+0x13>
 8049e0e:	89 d8                	mov    %ebx,%eax
 8049e10:	5b                   	pop    %ebx
 8049e11:	5d                   	pop    %ebp
 8049e12:	c3                   	ret    

08049e13 <check>:
 8049e13:	55                   	push   %ebp
 8049e14:	89 e5                	mov    %esp,%ebp
 8049e16:	8b 45 08             	mov    0x8(%ebp),%eax
 8049e19:	89 c2                	mov    %eax,%edx
 8049e1b:	c1 ea 1c             	shr    $0x1c,%edx
 8049e1e:	85 d2                	test   %edx,%edx
 8049e20:	74 24                	je     8049e46 <check+0x33>
 8049e22:	3c 0a                	cmp    $0xa,%al
 8049e24:	74 20                	je     8049e46 <check+0x33>
 8049e26:	0f b6 d4             	movzbl %ah,%edx
 8049e29:	83 fa 0a             	cmp    $0xa,%edx
 8049e2c:	74 18                	je     8049e46 <check+0x33>
 8049e2e:	89 c2                	mov    %eax,%edx
 8049e30:	c1 ea 10             	shr    $0x10,%edx
 8049e33:	80 fa 0a             	cmp    $0xa,%dl
 8049e36:	74 0e                	je     8049e46 <check+0x33>
 8049e38:	c1 e8 18             	shr    $0x18,%eax
 8049e3b:	83 f8 0a             	cmp    $0xa,%eax
 8049e3e:	0f 95 c0             	setne  %al
 8049e41:	0f b6 c0             	movzbl %al,%eax
 8049e44:	eb 05                	jmp    8049e4b <check+0x38>
 8049e46:	b8 00 00 00 00       	mov    $0x0,%eax
 8049e4b:	5d                   	pop    %ebp
 8049e4c:	c3                   	ret    

08049e4d <gencookie>:
 8049e4d:	55                   	push   %ebp
 8049e4e:	89 e5                	mov    %esp,%ebp
 8049e50:	53                   	push   %ebx
 8049e51:	83 ec 14             	sub    $0x14,%esp
 8049e54:	8b 45 08             	mov    0x8(%ebp),%eax
 8049e57:	89 04 24             	mov    %eax,(%esp)
 8049e5a:	e8 89 ff ff ff       	call   8049de8 <hash>
 8049e5f:	89 04 24             	mov    %eax,(%esp)
 8049e62:	e8 d9 e9 ff ff       	call   8048840 <srand@plt>
 8049e67:	e8 74 eb ff ff       	call   80489e0 <rand@plt>
 8049e6c:	89 c3                	mov    %eax,%ebx
 8049e6e:	89 04 24             	mov    %eax,(%esp)
 8049e71:	e8 9d ff ff ff       	call   8049e13 <check>
 8049e76:	85 c0                	test   %eax,%eax
 8049e78:	74 ed                	je     8049e67 <gencookie+0x1a>
 8049e7a:	89 d8                	mov    %ebx,%eax
 8049e7c:	83 c4 14             	add    $0x14,%esp
 8049e7f:	5b                   	pop    %ebx
 8049e80:	5d                   	pop    %ebp
 8049e81:	c3                   	ret    
 8049e82:	90                   	nop
 8049e83:	90                   	nop

08049e84 <__libc_csu_fini>:
 8049e84:	55                   	push   %ebp
 8049e85:	89 e5                	mov    %esp,%ebp
 8049e87:	5d                   	pop    %ebp
 8049e88:	c3                   	ret    

08049e89 <__libc_csu_init>:
 8049e89:	55                   	push   %ebp
 8049e8a:	89 e5                	mov    %esp,%ebp
 8049e8c:	57                   	push   %edi
 8049e8d:	56                   	push   %esi
 8049e8e:	53                   	push   %ebx
 8049e8f:	83 ec 0c             	sub    $0xc,%esp
 8049e92:	e8 4c 00 00 00       	call   8049ee3 <__i686.get_pc_thunk.bx>
 8049e97:	81 c3 49 12 00 00    	add    $0x1249,%ebx
 8049e9d:	e8 3e e9 ff ff       	call   80487e0 <_init>
 8049ea2:	8d 83 20 ff ff ff    	lea    -0xe0(%ebx),%eax
 8049ea8:	8d 93 20 ff ff ff    	lea    -0xe0(%ebx),%edx
 8049eae:	29 d0                	sub    %edx,%eax
 8049eb0:	89 c7                	mov    %eax,%edi
 8049eb2:	c1 ff 02             	sar    $0x2,%edi
 8049eb5:	74 24                	je     8049edb <__libc_csu_init+0x52>
 8049eb7:	31 f6                	xor    %esi,%esi
 8049eb9:	8b 45 10             	mov    0x10(%ebp),%eax
 8049ebc:	89 44 24 08          	mov    %eax,0x8(%esp)
 8049ec0:	8b 45 0c             	mov    0xc(%ebp),%eax
 8049ec3:	89 44 24 04          	mov    %eax,0x4(%esp)
 8049ec7:	8b 45 08             	mov    0x8(%ebp),%eax
 8049eca:	89 04 24             	mov    %eax,(%esp)
 8049ecd:	ff 94 b3 20 ff ff ff 	call   *-0xe0(%ebx,%esi,4)
 8049ed4:	83 c6 01             	add    $0x1,%esi
 8049ed7:	39 fe                	cmp    %edi,%esi
 8049ed9:	72 de                	jb     8049eb9 <__libc_csu_init+0x30>
 8049edb:	83 c4 0c             	add    $0xc,%esp
 8049ede:	5b                   	pop    %ebx
 8049edf:	5e                   	pop    %esi
 8049ee0:	5f                   	pop    %edi
 8049ee1:	5d                   	pop    %ebp
 8049ee2:	c3                   	ret    

08049ee3 <__i686.get_pc_thunk.bx>:
 8049ee3:	8b 1c 24             	mov    (%esp),%ebx
 8049ee6:	c3                   	ret    
 8049ee7:	90                   	nop
 8049ee8:	90                   	nop
 8049ee9:	90                   	nop
 8049eea:	90                   	nop
 8049eeb:	90                   	nop
 8049eec:	90                   	nop
 8049eed:	90                   	nop
 8049eee:	90                   	nop
 8049eef:	90                   	nop

08049ef0 <__do_global_ctors_aux>:
 8049ef0:	55                   	push   %ebp
 8049ef1:	89 e5                	mov    %esp,%ebp
 8049ef3:	53                   	push   %ebx
 8049ef4:	83 ec 04             	sub    $0x4,%esp
 8049ef7:	a1 00 b0 04 08       	mov    0x804b000,%eax
 8049efc:	83 f8 ff             	cmp    $0xffffffff,%eax
 8049eff:	74 13                	je     8049f14 <__do_global_ctors_aux+0x24>
 8049f01:	bb 00 b0 04 08       	mov    $0x804b000,%ebx
 8049f06:	66 90                	xchg   %ax,%ax
 8049f08:	83 eb 04             	sub    $0x4,%ebx
 8049f0b:	ff d0                	call   *%eax
 8049f0d:	8b 03                	mov    (%ebx),%eax
 8049f0f:	83 f8 ff             	cmp    $0xffffffff,%eax
 8049f12:	75 f4                	jne    8049f08 <__do_global_ctors_aux+0x18>
 8049f14:	83 c4 04             	add    $0x4,%esp
 8049f17:	5b                   	pop    %ebx
 8049f18:	5d                   	pop    %ebp
 8049f19:	c3                   	ret    
 8049f1a:	90                   	nop
 8049f1b:	90                   	nop

Disassembly of section .fini:

08049f1c <_fini>:
 8049f1c:	55                   	push   %ebp
 8049f1d:	89 e5                	mov    %esp,%ebp
 8049f1f:	53                   	push   %ebx
 8049f20:	83 ec 04             	sub    $0x4,%esp
 8049f23:	e8 00 00 00 00       	call   8049f28 <_fini+0xc>
 8049f28:	5b                   	pop    %ebx
 8049f29:	81 c3 b8 11 00 00    	add    $0x11b8,%ebx
 8049f2f:	e8 3c eb ff ff       	call   8048a70 <__do_global_dtors_aux>
 8049f34:	59                   	pop    %ecx
 8049f35:	5b                   	pop    %ebx
 8049f36:	c9                   	leave  
 8049f37:	c3                   	ret    

Disassembly of section .rodata:

08049f38 <_fp_hw>:
 8049f38:	03 00                	add    (%eax),%eax
	...

08049f3c <_IO_stdin_used>:
 8049f3c:	01 00                	add    %eax,(%eax)
 8049f3e:	02 00                	add    (%eax),%al
 8049f40:	55                   	push   %ebp
 8049f41:	73 61                	jae    8049fa4 <_IO_stdin_used+0x68>
 8049f43:	67 65 3a 20          	cmp    %gs:(%bx,%si),%ah
 8049f47:	25 73 20 2d 75       	and    $0x752d2073,%eax
 8049f4c:	20 3c 75 73 65 72 69 	and    %bh,0x69726573(,%esi,2)
 8049f53:	64 3e 20 5b 2d       	fs and %bl,%ds:%fs:0x2d(%ebx)
 8049f58:	6e                   	outsb  %ds:(%esi),(%dx)
 8049f59:	73 68                	jae    8049fc3 <_IO_stdin_used+0x87>
 8049f5b:	5d                   	pop    %ebp
 8049f5c:	0a 00                	or     (%eax),%al
 8049f5e:	20 20                	and    %ah,(%eax)
 8049f60:	2d 75 20 3c 75       	sub    $0x753c2075,%eax
 8049f65:	73 65                	jae    8049fcc <_IO_stdin_used+0x90>
 8049f67:	72 69                	jb     8049fd2 <_IO_stdin_used+0x96>
 8049f69:	64 3e 20 55 73       	fs and %dl,%ds:%fs:0x73(%ebp)
 8049f6e:	65                   	gs
 8049f6f:	72 20                	jb     8049f91 <_IO_stdin_used+0x55>
 8049f71:	49                   	dec    %ecx
 8049f72:	44                   	inc    %esp
 8049f73:	00 20                	add    %ah,(%eax)
 8049f75:	20 2d 6e 20 20 20    	and    %ch,0x2020206e
 8049f7b:	20 20                	and    %ah,(%eax)
 8049f7d:	20 20                	and    %ah,(%eax)
 8049f7f:	20 20                	and    %ah,(%eax)
 8049f81:	20 4e 69             	and    %cl,0x69(%esi)
 8049f84:	74 72                	je     8049ff8 <_IO_stdin_used+0xbc>
 8049f86:	6f                   	outsl  %ds:(%esi),(%dx)
 8049f87:	20 6d 6f             	and    %ch,0x6f(%ebp)
 8049f8a:	64 65 00 42 65       	fs add %al,%fs:%gs:0x65(%edx)
 8049f8f:	74 74                	je     804a005 <_IO_stdin_used+0xc9>
 8049f91:	65                   	gs
 8049f92:	72 20                	jb     8049fb4 <_IO_stdin_used+0x78>
 8049f94:	6c                   	insb   (%dx),%es:(%edi)
 8049f95:	75 63                	jne    8049ffa <_IO_stdin_used+0xbe>
 8049f97:	6b 20 6e             	imul   $0x6e,(%eax),%esp
 8049f9a:	65                   	gs
 8049f9b:	78 74                	js     804a011 <_IO_stdin_used+0xd5>
 8049f9d:	20 74 69 6d          	and    %dh,0x6d(%ecx,%ebp,2)
 8049fa1:	65 00 44 75 64       	add    %al,%gs:0x64(%ebp,%esi,2)
 8049fa6:	3a 20                	cmp    (%eax),%ah
 8049fa8:	67                   	addr16
 8049fa9:	65                   	gs
 8049faa:	74 62                	je     804a00e <_IO_stdin_used+0xd2>
 8049fac:	75 66                	jne    804a014 <_IO_stdin_used+0xd8>
 8049fae:	6e                   	outsb  %ds:(%esi),(%dx)
 8049faf:	20 72 65             	and    %dh,0x65(%edx)
 8049fb2:	74 75                	je     804a029 <_IO_stdin_used+0xed>
 8049fb4:	72 6e                	jb     804a024 <_IO_stdin_used+0xe8>
 8049fb6:	65 64 20 30          	gs and %dh,%fs:%gs:(%eax)
 8049fba:	78 25                	js     8049fe1 <_IO_stdin_used+0xa5>
 8049fbc:	78 0a                	js     8049fc8 <_IO_stdin_used+0x8c>
 8049fbe:	00 42 6f             	add    %al,0x6f(%edx)
 8049fc1:	6f                   	outsl  %ds:(%esi),(%dx)
 8049fc2:	6d                   	insl   (%dx),%es:(%edi)
 8049fc3:	21 3a                	and    %edi,(%edx)
 8049fc5:	20 67 65             	and    %ah,0x65(%edi)
 8049fc8:	74 62                	je     804a02c <_IO_stdin_used+0xf0>
 8049fca:	75 66                	jne    804a032 <_IO_stdin_used+0xf6>
 8049fcc:	20 72 65             	and    %dh,0x65(%edx)
 8049fcf:	74 75                	je     804a046 <_IO_stdin_used+0x10a>
 8049fd1:	72 6e                	jb     804a041 <_IO_stdin_used+0x105>
 8049fd3:	65 64 20 30          	gs and %dh,%fs:%gs:(%eax)
 8049fd7:	78 25                	js     8049ffe <_IO_stdin_used+0xc2>
 8049fd9:	78 0a                	js     8049fe5 <_IO_stdin_used+0xa9>
 8049fdb:	00 44 75 64          	add    %al,0x64(%ebp,%esi,2)
 8049fdf:	3a 20                	cmp    (%eax),%ah
 8049fe1:	67                   	addr16
 8049fe2:	65                   	gs
 8049fe3:	74 62                	je     804a047 <_IO_stdin_used+0x10b>
 8049fe5:	75 66                	jne    804a04d <_IO_stdin_used+0x111>
 8049fe7:	20 72 65             	and    %dh,0x65(%edx)
 8049fea:	74 75                	je     804a061 <_IO_stdin_used+0x125>
 8049fec:	72 6e                	jb     804a05c <_IO_stdin_used+0x120>
 8049fee:	65 64 20 30          	gs and %dh,%fs:%gs:(%eax)
 8049ff2:	78 25                	js     804a019 <_IO_stdin_used+0xdd>
 8049ff4:	78 0a                	js     804a000 <_IO_stdin_used+0xc4>
 8049ff6:	00 54 79 70          	add    %dl,0x70(%ecx,%edi,2)
 8049ffa:	65 20 73 74          	and    %dh,%gs:0x74(%ebx)
 8049ffe:	72 69                	jb     804a069 <_IO_stdin_used+0x12d>
 804a000:	6e                   	outsb  %ds:(%esi),(%dx)
 804a001:	67 3a 00             	cmp    (%bx,%si),%al
 804a004:	67 73 6e             	addr16 jae 804a075 <_IO_stdin_used+0x139>
 804a007:	68 75 3a 00 55       	push   $0x55003a75
 804a00c:	73 65                	jae    804a073 <_IO_stdin_used+0x137>
 804a00e:	72 69                	jb     804a079 <_IO_stdin_used+0x13d>
 804a010:	64 3a 20             	cmp    %fs:(%eax),%ah
 804a013:	25 73 0a 00 43       	and    $0x43000a73,%eax
 804a018:	6f                   	outsl  %ds:(%esi),(%dx)
 804a019:	6f                   	outsl  %ds:(%esi),(%dx)
 804a01a:	6b 69 65 3a          	imul   $0x3a,0x65(%ecx),%ebp
 804a01e:	20 30                	and    %dh,(%eax)
 804a020:	78 25                	js     804a047 <_IO_stdin_used+0x10b>
 804a022:	78 0a                	js     804a02e <_IO_stdin_used+0xf2>
 804a024:	00 4d 69             	add    %cl,0x69(%ebp)
 804a027:	73 66                	jae    804a08f <_IO_stdin_used+0x153>
 804a029:	69 72 65 3a 20 67 6c 	imul   $0x6c67203a,0x65(%edx),%esi
 804a030:	6f                   	outsl  %ds:(%esi),(%dx)
 804a031:	62 61 6c             	bound  %esp,0x6c(%ecx)
 804a034:	5f                   	pop    %edi
 804a035:	76 61                	jbe    804a098 <_IO_stdin_used+0x15c>
 804a037:	6c                   	insb   (%dx),%es:(%edi)
 804a038:	75 65                	jne    804a09f <_IO_stdin_used+0x163>
 804a03a:	20 3d 20 30 78 25    	and    %bh,0x25783020
 804a040:	78 0a                	js     804a04c <_IO_stdin_used+0x110>
 804a042:	00 46 69             	add    %al,0x69(%esi)
 804a045:	7a 7a                	jp     804a0c1 <_IO_stdin_used+0x185>
 804a047:	21 3a                	and    %edi,(%edx)
 804a049:	20 59 6f             	and    %bl,0x6f(%ecx)
 804a04c:	75 20                	jne    804a06e <_IO_stdin_used+0x132>
 804a04e:	63 61 6c             	arpl   %sp,0x6c(%ecx)
 804a051:	6c                   	insb   (%dx),%es:(%edi)
 804a052:	65 64 20 66 69       	gs and %ah,%fs:%gs:0x69(%esi)
 804a057:	7a 7a                	jp     804a0d3 <_IO_stdin_used+0x197>
 804a059:	28 30                	sub    %dh,(%eax)
 804a05b:	78 25                	js     804a082 <_IO_stdin_used+0x146>
 804a05d:	78 29                	js     804a088 <_IO_stdin_used+0x14c>
 804a05f:	0a 00                	or     (%eax),%al
 804a061:	53                   	push   %ebx
 804a062:	6d                   	insl   (%dx),%es:(%edi)
 804a063:	6f                   	outsl  %ds:(%esi),(%dx)
 804a064:	6b 65 21 3a          	imul   $0x3a,0x21(%ebp),%esp
 804a068:	20 59 6f             	and    %bl,0x6f(%ecx)
 804a06b:	75 20                	jne    804a08d <_IO_stdin_used+0x151>
 804a06d:	63 61 6c             	arpl   %sp,0x6c(%ecx)
 804a070:	6c                   	insb   (%dx),%es:(%edi)
 804a071:	65 64 20 73 6d       	gs and %dh,%fs:%gs:0x6d(%ebx)
 804a076:	6f                   	outsl  %ds:(%esi),(%dx)
 804a077:	6b 65 28 29          	imul   $0x29,0x28(%ebp),%esp
 804a07b:	00 20                	add    %ah,(%eax)
 804a07d:	20 2d 73 20 20 20    	and    %ch,0x20202073
 804a083:	20 20                	and    %ah,(%eax)
 804a085:	20 20                	and    %ah,(%eax)
 804a087:	20 20                	and    %ah,(%eax)
 804a089:	20 53 75             	and    %dl,0x75(%ebx)
 804a08c:	62 6d 69             	bound  %ebp,0x69(%ebp)
 804a08f:	74 20                	je     804a0b1 <_IO_stdin_used+0x175>
 804a091:	79 6f                	jns    804a102 <_IO_stdin_used+0x1c6>
 804a093:	75 72                	jne    804a107 <_IO_stdin_used+0x1cb>
 804a095:	20 73 6f             	and    %dh,0x6f(%ebx)
 804a098:	6c                   	insb   (%dx),%es:(%edi)
 804a099:	75 74                	jne    804a10f <_IO_stdin_used+0x1d3>
 804a09b:	69 6f 6e 20 74 6f 20 	imul   $0x206f7420,0x6e(%edi),%ebp
 804a0a2:	74 68                	je     804a10c <_IO_stdin_used+0x1d0>
 804a0a4:	65 20 67 72          	and    %ah,%gs:0x72(%edi)
 804a0a8:	61                   	popa   
 804a0a9:	64 69 6e 67 20 73 65 	imul   $0x72657320,%fs:0x67(%esi),%ebp
 804a0b0:	72 
 804a0b1:	76 65                	jbe    804a118 <_IO_stdin_used+0x1dc>
 804a0b3:	72 00                	jb     804a0b5 <_IO_stdin_used+0x179>
 804a0b5:	00 00                	add    %al,(%eax)
 804a0b7:	00 20                	add    %ah,(%eax)
 804a0b9:	20 2d 68 20 20 20    	and    %ch,0x20202068
 804a0bf:	20 20                	and    %ah,(%eax)
 804a0c1:	20 20                	and    %ah,(%eax)
 804a0c3:	20 20                	and    %ah,(%eax)
 804a0c5:	20 50 72             	and    %dl,0x72(%eax)
 804a0c8:	69 6e 74 20 68 65 6c 	imul   $0x6c656820,0x74(%esi),%ebp
 804a0cf:	70 20                	jo     804a0f1 <_IO_stdin_used+0x1b5>
 804a0d1:	69 6e 66 6f 72 6d 61 	imul   $0x616d726f,0x66(%esi),%ebp
 804a0d8:	74 69                	je     804a143 <_IO_stdin_used+0x207>
 804a0da:	6f                   	outsl  %ds:(%esi),(%dx)
 804a0db:	6e                   	outsb  %ds:(%esi),(%dx)
 804a0dc:	00 00                	add    %al,(%eax)
 804a0de:	00 00                	add    %al,(%eax)
 804a0e0:	4f                   	dec    %edi
 804a0e1:	6f                   	outsl  %ds:(%esi),(%dx)
 804a0e2:	70 73                	jo     804a157 <_IO_stdin_used+0x21b>
 804a0e4:	21 3a                	and    %edi,(%edx)
 804a0e6:	20 59 6f             	and    %bl,0x6f(%ecx)
 804a0e9:	75 20                	jne    804a10b <_IO_stdin_used+0x1cf>
 804a0eb:	65                   	gs
 804a0ec:	78 65                	js     804a153 <_IO_stdin_used+0x217>
 804a0ee:	63 75 74             	arpl   %si,0x74(%ebp)
 804a0f1:	65 64 20 61 6e       	gs and %ah,%fs:%gs:0x6e(%ecx)
 804a0f6:	20 69 6c             	and    %ch,0x6c(%ecx)
 804a0f9:	6c                   	insb   (%dx),%es:(%edi)
 804a0fa:	65                   	gs
 804a0fb:	67 61                	addr16 popa 
 804a0fd:	6c                   	insb   (%dx),%es:(%edi)
 804a0fe:	20 69 6e             	and    %ch,0x6e(%ecx)
 804a101:	73 74                	jae    804a177 <_IO_stdin_used+0x23b>
 804a103:	72 75                	jb     804a17a <_IO_stdin_used+0x23e>
 804a105:	63 74 69 6f          	arpl   %si,0x6f(%ecx,%ebp,2)
 804a109:	6e                   	outsb  %ds:(%esi),(%dx)
 804a10a:	00 00                	add    %al,(%eax)
 804a10c:	4f                   	dec    %edi
 804a10d:	75 63                	jne    804a172 <_IO_stdin_used+0x236>
 804a10f:	68 21 3a 20 59       	push   $0x59203a21
 804a114:	6f                   	outsl  %ds:(%esi),(%dx)
 804a115:	75 20                	jne    804a137 <_IO_stdin_used+0x1fb>
 804a117:	63 61 75             	arpl   %sp,0x75(%ecx)
 804a11a:	73 65                	jae    804a181 <_IO_stdin_used+0x245>
 804a11c:	64 20 61 20          	and    %ah,%fs:0x20(%ecx)
 804a120:	73 65                	jae    804a187 <_IO_stdin_used+0x24b>
 804a122:	67 6d                	insl   (%dx),%es:(%di)
 804a124:	65 6e                	outsb  %gs:(%esi),(%dx)
 804a126:	74 61                	je     804a189 <_IO_stdin_used+0x24d>
 804a128:	74 69                	je     804a193 <_IO_stdin_used+0x257>
 804a12a:	6f                   	outsl  %ds:(%esi),(%dx)
 804a12b:	6e                   	outsb  %ds:(%esi),(%dx)
 804a12c:	20 66 61             	and    %ah,0x61(%esi)
 804a12f:	75 6c                	jne    804a19d <_IO_stdin_used+0x261>
 804a131:	74 21                	je     804a154 <_IO_stdin_used+0x218>
 804a133:	00 43 72             	add    %al,0x72(%ebx)
 804a136:	61                   	popa   
 804a137:	73 68                	jae    804a1a1 <_IO_stdin_used+0x265>
 804a139:	21 3a                	and    %edi,(%edx)
 804a13b:	20 59 6f             	and    %bl,0x6f(%ecx)
 804a13e:	75 20                	jne    804a160 <_IO_stdin_used+0x224>
 804a140:	63 61 75             	arpl   %sp,0x75(%ecx)
 804a143:	73 65                	jae    804a1aa <_IO_stdin_used+0x26e>
 804a145:	64 20 61 20          	and    %ah,%fs:0x20(%ecx)
 804a149:	62 75 73             	bound  %esi,0x73(%ebp)
 804a14c:	20 65 72             	and    %ah,0x72(%ebp)
 804a14f:	72 6f                	jb     804a1c0 <_IO_stdin_used+0x284>
 804a151:	72 21                	jb     804a174 <_IO_stdin_used+0x238>
 804a153:	00 53 61             	add    %dl,0x61(%ebx)
 804a156:	62 6f 74             	bound  %ebp,0x74(%edi)
 804a159:	61                   	popa   
 804a15a:	67 65 64 21 3a       	gs and %edi,%fs:%gs:(%bp,%si)
 804a15f:	20 74 68 65          	and    %dh,0x65(%eax,%ebp,2)
 804a163:	20 73 74             	and    %dh,0x74(%ebx)
 804a166:	61                   	popa   
 804a167:	63 6b 20             	arpl   %bp,0x20(%ebx)
 804a16a:	68 61 73 20 62       	push   $0x62207361
 804a16f:	65 65 6e             	gs outsb %gs:(%esi),(%dx)
 804a172:	20 63 6f             	and    %ah,0x6f(%ebx)
 804a175:	72 72                	jb     804a1e9 <_IO_stdin_used+0x2ad>
 804a177:	75 70                	jne    804a1e9 <_IO_stdin_used+0x2ad>
 804a179:	74 65                	je     804a1e0 <_IO_stdin_used+0x2a4>
 804a17b:	64 00 00             	add    %al,%fs:(%eax)
 804a17e:	00 00                	add    %al,(%eax)
 804a180:	4b                   	dec    %ebx
 804a181:	41                   	inc    %ecx
 804a182:	42                   	inc    %edx
 804a183:	4f                   	dec    %edi
 804a184:	4f                   	dec    %edi
 804a185:	4d                   	dec    %ebp
 804a186:	21 3a                	and    %edi,(%edx)
 804a188:	20 67 65             	and    %ah,0x65(%edi)
 804a18b:	74 62                	je     804a1ef <_IO_stdin_used+0x2b3>
 804a18d:	75 66                	jne    804a1f5 <_IO_stdin_used+0x2b9>
 804a18f:	6e                   	outsb  %ds:(%esi),(%dx)
 804a190:	20 72 65             	and    %dh,0x65(%edx)
 804a193:	74 75                	je     804a20a <_IO_stdin_used+0x2ce>
 804a195:	72 6e                	jb     804a205 <_IO_stdin_used+0x2c9>
 804a197:	65 64 20 30          	gs and %dh,%fs:%gs:(%eax)
 804a19b:	78 25                	js     804a1c2 <_IO_stdin_used+0x286>
 804a19d:	78 0a                	js     804a1a9 <_IO_stdin_used+0x26d>
 804a19f:	00 49 6e             	add    %cl,0x6e(%ecx)
 804a1a2:	74 65                	je     804a209 <_IO_stdin_used+0x2cd>
 804a1a4:	72 6e                	jb     804a214 <_IO_stdin_used+0x2d8>
 804a1a6:	61                   	popa   
 804a1a7:	6c                   	insb   (%dx),%es:(%edi)
 804a1a8:	20 65 72             	and    %ah,0x72(%ebp)
 804a1ab:	72 6f                	jb     804a21c <_IO_stdin_used+0x2e0>
 804a1ad:	72 2e                	jb     804a1dd <_IO_stdin_used+0x2a1>
 804a1af:	20 20                	and    %ah,(%eax)
 804a1b1:	43                   	inc    %ebx
 804a1b2:	6f                   	outsl  %ds:(%esi),(%dx)
 804a1b3:	75 6c                	jne    804a221 <_IO_stdin_used+0x2e5>
 804a1b5:	64 6e                	outsb  %fs:(%esi),(%dx)
 804a1b7:	27                   	daa    
 804a1b8:	74 20                	je     804a1da <_IO_stdin_used+0x29e>
 804a1ba:	75 73                	jne    804a22f <_IO_stdin_used+0x2f3>
 804a1bc:	65 20 6d 6d          	and    %ch,%gs:0x6d(%ebp)
 804a1c0:	61                   	popa   
 804a1c1:	70 2e                	jo     804a1f1 <_IO_stdin_used+0x2b5>
 804a1c3:	20 54 72 79          	and    %dl,0x79(%edx,%esi,2)
 804a1c7:	20 64 69 66          	and    %ah,0x66(%ecx,%ebp,2)
 804a1cb:	66                   	data16
 804a1cc:	65                   	gs
 804a1cd:	72 65                	jb     804a234 <_IO_stdin_used+0x2f8>
 804a1cf:	6e                   	outsb  %ds:(%esi),(%dx)
 804a1d0:	74 20                	je     804a1f2 <_IO_stdin_used+0x2b6>
 804a1d2:	76 61                	jbe    804a235 <_IO_stdin_used+0x2f9>
 804a1d4:	6c                   	insb   (%dx),%es:(%edi)
 804a1d5:	75 65                	jne    804a23c <_IO_stdin_used+0x300>
 804a1d7:	20 66 6f             	and    %ah,0x6f(%esi)
 804a1da:	72 20                	jb     804a1fc <_IO_stdin_used+0x2c0>
 804a1dc:	53                   	push   %ebx
 804a1dd:	54                   	push   %esp
 804a1de:	41                   	inc    %ecx
 804a1df:	52                   	push   %edx
 804a1e0:	54                   	push   %esp
 804a1e1:	5f                   	pop    %edi
 804a1e2:	41                   	inc    %ecx
 804a1e3:	44                   	inc    %esp
 804a1e4:	44                   	inc    %esp
 804a1e5:	52                   	push   %edx
 804a1e6:	0a 00                	or     (%eax),%al
 804a1e8:	25 73 3a 20 4d       	and    $0x4d203a73,%eax
 804a1ed:	69 73 73 69 6e 67 20 	imul   $0x20676e69,0x73(%ebx),%esi
 804a1f4:	72 65                	jb     804a25b <_IO_stdin_used+0x31f>
 804a1f6:	71 75                	jno    804a26d <_IO_stdin_used+0x331>
 804a1f8:	69 72 65 64 20 61 72 	imul   $0x72612064,0x65(%edx),%esi
 804a1ff:	67 75 6d             	addr16 jne 804a26f <_IO_stdin_used+0x333>
 804a202:	65 6e                	outsb  %gs:(%esi),(%dx)
 804a204:	74 20                	je     804a226 <_IO_stdin_used+0x2ea>
 804a206:	28 2d 75 20 3c 75    	sub    %ch,0x753c2075
 804a20c:	73 65                	jae    804a273 <_IO_stdin_used+0x337>
 804a20e:	72 69                	jb     804a279 <_IO_stdin_used+0x33d>
 804a210:	64 29 0a             	sub    %ecx,%fs:(%edx)
 804a213:	00 42 61             	add    %al,0x61(%edx)
 804a216:	6e                   	outsb  %ds:(%esi),(%dx)
 804a217:	67 21 3a             	and    %edi,(%bp,%si)
 804a21a:	20 59 6f             	and    %bl,0x6f(%ecx)
 804a21d:	75 20                	jne    804a23f <_IO_stdin_used+0x303>
 804a21f:	73 65                	jae    804a286 <_IO_stdin_used+0x34a>
 804a221:	74 20                	je     804a243 <_IO_stdin_used+0x307>
 804a223:	67 6c                	insb   (%dx),%es:(%di)
 804a225:	6f                   	outsl  %ds:(%esi),(%dx)
 804a226:	62 61 6c             	bound  %esp,0x6c(%ecx)
 804a229:	5f                   	pop    %edi
 804a22a:	76 61                	jbe    804a28d <_IO_stdin_used+0x351>
 804a22c:	6c                   	insb   (%dx),%es:(%edi)
 804a22d:	75 65                	jne    804a294 <_IO_stdin_used+0x358>
 804a22f:	20 74 6f 20          	and    %dh,0x20(%edi,%ebp,2)
 804a233:	30 78 25             	xor    %bh,0x25(%eax)
 804a236:	78 0a                	js     804a242 <_IO_stdin_used+0x306>
 804a238:	00 00                	add    %al,(%eax)
 804a23a:	00 00                	add    %al,(%eax)
 804a23c:	4d                   	dec    %ebp
 804a23d:	69 73 66 69 72 65 3a 	imul   $0x3a657269,0x66(%ebx),%esi
 804a244:	20 59 6f             	and    %bl,0x6f(%ecx)
 804a247:	75 20                	jne    804a269 <_IO_stdin_used+0x32d>
 804a249:	63 61 6c             	arpl   %sp,0x6c(%ecx)
 804a24c:	6c                   	insb   (%dx),%es:(%edi)
 804a24d:	65 64 20 66 69       	gs and %ah,%fs:%gs:0x69(%esi)
 804a252:	7a 7a                	jp     804a2ce <trans_char+0x36>
 804a254:	28 30                	sub    %dh,(%eax)
 804a256:	78 25                	js     804a27d <_IO_stdin_used+0x341>
 804a258:	78 29                	js     804a283 <_IO_stdin_used+0x347>
 804a25a:	0a 00                	or     (%eax),%al
 804a25c:	af                   	scas   %es:(%edi),%eax
 804a25d:	8f 04 08             	popl   (%eax,%ecx,1)
 804a260:	78 8f                	js     804a1f1 <_IO_stdin_used+0x2b5>
 804a262:	04 08                	add    $0x8,%al
 804a264:	bb 8f 04 08 bb       	mov    $0xbb08048f,%ebx
 804a269:	8f 04 08             	popl   (%eax,%ecx,1)
 804a26c:	bb 8f 04 08 bb       	mov    $0xbb08048f,%ebx
 804a271:	8f 04 08             	popl   (%eax,%ecx,1)
 804a274:	bb 8f 04 08 66       	mov    $0x6608048f,%ebx
 804a279:	8f 04 08             	popl   (%eax,%ecx,1)
 804a27c:	bb 8f 04 08 bb       	mov    $0xbb08048f,%ebx
 804a281:	8f 04 08             	popl   (%eax,%ecx,1)
 804a284:	bb 8f 04 08 bb       	mov    $0xbb08048f,%ebx
 804a289:	8f 04 08             	popl   (%eax,%ecx,1)
 804a28c:	a3 8f 04 08 bb       	mov    %eax,0xbb08048f
 804a291:	8f 04 08             	popl   (%eax,%ecx,1)
 804a294:	81 8f 04 08 30 31 32 	orl    $0x35343332,0x31300804(%edi)
 804a29b:	33 34 35 

0804a298 <trans_char>:
 804a298:	30 31                	xor    %dh,(%ecx)
 804a29a:	32 33                	xor    (%ebx),%dh
 804a29c:	34 35                	xor    $0x35,%al
 804a29e:	36                   	ss
 804a29f:	37                   	aaa    
 804a2a0:	38 39                	cmp    %bh,(%ecx)
 804a2a2:	41                   	inc    %ecx
 804a2a3:	42                   	inc    %edx
 804a2a4:	43                   	inc    %ebx
 804a2a5:	44                   	inc    %esp
 804a2a6:	45                   	inc    %ebp
 804a2a7:	46                   	inc    %esi
 804a2a8:	4e                   	dec    %esi
 804a2a9:	6f                   	outsl  %ds:(%esi),(%dx)
 804a2aa:	20 75 73             	and    %dh,0x73(%ebp)
 804a2ad:	65                   	gs
 804a2ae:	72 69                	jb     804a319 <trans_char+0x81>
 804a2b0:	64 20 69 6e          	and    %ch,%fs:0x6e(%ecx)
 804a2b4:	64 69 63 61 74 65 64 	imul   $0x2e646574,%fs:0x61(%ebx),%esp
 804a2bb:	2e 
 804a2bc:	20 20                	and    %ah,(%eax)
 804a2be:	52                   	push   %edx
 804a2bf:	65                   	gs
 804a2c0:	73 75                	jae    804a337 <trans_char+0x9f>
 804a2c2:	6c                   	insb   (%dx),%es:(%edi)
 804a2c3:	74 73                	je     804a338 <trans_char+0xa0>
 804a2c5:	20 6e 6f             	and    %ch,0x6f(%esi)
 804a2c8:	74 20                	je     804a2ea <trans_char+0x52>
 804a2ca:	76 61                	jbe    804a32d <trans_char+0x95>
 804a2cc:	6c                   	insb   (%dx),%es:(%edi)
 804a2cd:	69 64 61 74 65 64 00 	imul   $0x49006465,0x74(%ecx,%eiz,2),%esp
 804a2d4:	49 
 804a2d5:	6e                   	outsb  %ds:(%esi),(%dx)
 804a2d6:	76 61                	jbe    804a339 <trans_char+0xa1>
 804a2d8:	6c                   	insb   (%dx),%es:(%edi)
 804a2d9:	69 64 20 6c 65 76 65 	imul   $0x6c657665,0x6c(%eax,%eiz,1),%esp
 804a2e0:	6c 
 804a2e1:	2e 20 20             	and    %ah,%cs:(%eax)
 804a2e4:	52                   	push   %edx
 804a2e5:	65                   	gs
 804a2e6:	73 75                	jae    804a35d <trans_char+0xc5>
 804a2e8:	6c                   	insb   (%dx),%es:(%edi)
 804a2e9:	74 73                	je     804a35e <trans_char+0xc6>
 804a2eb:	20 6e 6f             	and    %ch,0x6f(%esi)
 804a2ee:	74 20                	je     804a310 <trans_char+0x78>
 804a2f0:	76 61                	jbe    804a353 <trans_char+0xbb>
 804a2f2:	6c                   	insb   (%dx),%es:(%edi)
 804a2f3:	69 64 61 74 65 64 00 	imul   $0x6465,0x74(%ecx,%eiz,2),%esp
 804a2fa:	00 
 804a2fb:	00 57 61             	add    %dl,0x61(%edi)
 804a2fe:	72 6e                	jb     804a36e <trans_char+0xd6>
 804a300:	69 6e 67 3a 20 49 6e 	imul   $0x6e49203a,0x67(%esi),%ebp
 804a307:	70 75                	jo     804a37e <trans_char+0xe6>
 804a309:	74 20                	je     804a32b <trans_char+0x93>
 804a30b:	73 74                	jae    804a381 <trans_char+0xe9>
 804a30d:	72 69                	jb     804a378 <trans_char+0xe0>
 804a30f:	6e                   	outsb  %ds:(%esi),(%dx)
 804a310:	67 20 74 6f          	and    %dh,0x6f(%si)
 804a314:	6f                   	outsl  %ds:(%esi),(%dx)
 804a315:	20 6c 61 72          	and    %ch,0x72(%ecx,%eiz,2)
 804a319:	67 65 2e 20 52 65    	gs and %dl,%cs:%gs:0x65(%bp,%si)
 804a31f:	73 75                	jae    804a396 <trans_char+0xfe>
 804a321:	6c                   	insb   (%dx),%es:(%edi)
 804a322:	74 73                	je     804a397 <trans_char+0xff>
 804a324:	20 6e 6f             	and    %ch,0x6f(%esi)
 804a327:	74 20                	je     804a349 <trans_char+0xb1>
 804a329:	76 61                	jbe    804a38c <trans_char+0xf4>
 804a32b:	6c                   	insb   (%dx),%es:(%edi)
 804a32c:	69 64 61 74 65 64 00 	imul   $0x6465,0x74(%ecx,%eiz,2),%esp
 804a333:	00 
 804a334:	53                   	push   %ebx
 804a335:	65 6e                	outsb  %gs:(%esi),(%dx)
 804a337:	74 20                	je     804a359 <trans_char+0xc1>
 804a339:	65                   	gs
 804a33a:	78 70                	js     804a3ac <trans_char+0x114>
 804a33c:	6c                   	insb   (%dx),%es:(%edi)
 804a33d:	6f                   	outsl  %ds:(%esi),(%dx)
 804a33e:	69 74 20 73 74 72 69 	imul   $0x6e697274,0x73(%eax,%eiz,1),%esi
 804a345:	6e 
 804a346:	67 20 74 6f          	and    %dh,0x6f(%si)
 804a34a:	20 73 65             	and    %dh,0x65(%ebx)
 804a34d:	72 76                	jb     804a3c5 <trans_char+0x12d>
 804a34f:	65                   	gs
 804a350:	72 20                	jb     804a372 <trans_char+0xda>
 804a352:	74 6f                	je     804a3c3 <trans_char+0x12b>
 804a354:	20 62 65             	and    %ah,0x65(%edx)
 804a357:	20 76 61             	and    %dh,0x61(%esi)
 804a35a:	6c                   	insb   (%dx),%es:(%edi)
 804a35b:	69 64 61 74 65 64 2e 	imul   $0x2e6465,0x74(%ecx,%eiz,2),%esp
 804a362:	00 
 804a363:	00 57 61             	add    %dl,0x61(%edi)
 804a366:	72 6e                	jb     804a3d6 <trans_char+0x13e>
 804a368:	69 6e 67 3a 20 55 6e 	imul   $0x6e55203a,0x67(%esi),%ebp
 804a36f:	61                   	popa   
 804a370:	62 6c 65 20          	bound  %ebp,0x20(%ebp,%eiz,2)
 804a374:	74 6f                	je     804a3e5 <trans_char+0x14d>
 804a376:	20 73 65             	and    %dh,0x65(%ebx)
 804a379:	6e                   	outsb  %ds:(%esi),(%dx)
 804a37a:	64 20 65 78          	and    %ah,%fs:0x78(%ebp)
 804a37e:	70 6c                	jo     804a3ec <trans_char+0x154>
 804a380:	6f                   	outsl  %ds:(%esi),(%dx)
 804a381:	69 74 20 73 74 72 69 	imul   $0x6e697274,0x73(%eax,%eiz,1),%esi
 804a388:	6e 
 804a389:	67 20 74 6f          	and    %dh,0x6f(%si)
 804a38d:	20 67 72             	and    %ah,0x72(%edi)
 804a390:	61                   	popa   
 804a391:	64 69 6e 67 20 73 65 	imul   $0x72657320,%fs:0x67(%esi),%ebp
 804a398:	72 
 804a399:	76 65                	jbe    804a400 <trans_char+0x168>
 804a39b:	72 3a                	jb     804a3d7 <trans_char+0x13f>
 804a39d:	0a 25 73 0a 00 00    	or     0xa73,%ah
 804a3a3:	00 69 6e             	add    %ch,0x6e(%ecx)
 804a3a6:	69 74 69 61 6c 69 7a 	imul   $0x657a696c,0x61(%ecx,%ebp,2),%esi
 804a3ad:	65 
 804a3ae:	5f                   	pop    %edi
 804a3af:	62 6f 6d             	bound  %ebp,0x6d(%edi)
 804a3b2:	62 3a                	bound  %edi,(%edx)
 804a3b4:	20 43 6f             	and    %al,0x6f(%ebx)
 804a3b7:	75 6c                	jne    804a425 <trans_char+0x18d>
 804a3b9:	64 20 6e 6f          	and    %ch,%fs:0x6f(%esi)
 804a3bd:	74 20                	je     804a3df <trans_char+0x147>
 804a3bf:	67                   	addr16
 804a3c0:	65                   	gs
 804a3c1:	74 20                	je     804a3e3 <trans_char+0x14b>
 804a3c3:	68 6f 73 74 6e       	push   $0x6e74736f
 804a3c8:	61                   	popa   
 804a3c9:	6d                   	insl   (%dx),%es:(%edi)
 804a3ca:	65 20 6f 66          	and    %ch,%gs:0x66(%edi)
 804a3ce:	20 74 68 69          	and    %dh,0x69(%eax,%ebp,2)
 804a3d2:	73 20                	jae    804a3f4 <trans_char+0x15c>
 804a3d4:	6d                   	insl   (%dx),%es:(%edi)
 804a3d5:	61                   	popa   
 804a3d6:	63 68 69             	arpl   %bp,0x69(%eax)
 804a3d9:	6e                   	outsb  %ds:(%esi),(%dx)
 804a3da:	65 00 4b 65          	add    %cl,%gs:0x65(%ebx)
 804a3de:	65                   	gs
 804a3df:	70 20                	jo     804a401 <trans_char+0x169>
 804a3e1:	67 6f                	outsl  %ds:(%si),(%dx)
 804a3e3:	69 6e 67 00 56 41 4c 	imul   $0x4c415600,0x67(%esi),%ebp
 804a3ea:	49                   	dec    %ecx
 804a3eb:	44                   	inc    %esp
 804a3ec:	00 25 64 3a 25 78    	add    %ah,0x78253a64
 804a3f2:	3a 25 73 00 4e 49    	cmp    0x494e0073,%ah
 804a3f8:	43                   	inc    %ebx
 804a3f9:	45                   	inc    %ebp
 804a3fa:	20 4a 4f             	and    %cl,0x4f(%edx)
 804a3fd:	42                   	inc    %edx
 804a3fe:	21 00                	and    %eax,(%eax)
 804a400:	69 6e 69 74 69 61 6c 	imul   $0x6c616974,0x69(%esi),%ebp
 804a407:	69 7a 65 5f 62 6f 6d 	imul   $0x6d6f625f,0x65(%edx),%edi
 804a40e:	62 3a                	bound  %edi,(%edx)
 804a410:	20 25 73 0a 00 69    	and    %ah,0x69000a73
 804a416:	70 61                	jo     804a479 <trans_char+0x1e1>
 804a418:	64                   	fs
 804a419:	73 2e                	jae    804a449 <trans_char+0x1b1>
 804a41b:	73 65                	jae    804a482 <trans_char+0x1ea>
 804a41d:	2e 73 6a             	jae,pn 804a48a <trans_char+0x1f2>
 804a420:	74 75                	je     804a497 <trans_char+0x1ff>
 804a422:	2e                   	cs
 804a423:	65                   	gs
 804a424:	64                   	fs
 804a425:	75 2e                	jne    804a455 <trans_char+0x1bd>
 804a427:	63 6e 00             	arpl   %bp,0x0(%esi)
 804a42a:	25 25 25 30 32       	and    $0x32302525,%eax
 804a42f:	58                   	pop    %eax
 804a430:	00 25 73 20 25 64    	add    %ah,0x64252073
 804a436:	20 25 5b 61 2d 7a    	and    %ah,0x7a2d615b
 804a43c:	41                   	inc    %ecx
 804a43d:	2d 7a 20 5d 00       	sub    $0x5d207a,%eax
 804a442:	0d 0a 00 4f 4b       	or     $0x4b4f000a,%eax
 804a447:	00 0a                	add    %cl,(%edx)
 804a449:	41                   	inc    %ecx
 804a44a:	55                   	push   %ebp
 804a44b:	54                   	push   %esp
 804a44c:	4f                   	dec    %edi
 804a44d:	52                   	push   %edx
 804a44e:	45                   	inc    %ebp
 804a44f:	53                   	push   %ebx
 804a450:	55                   	push   %ebp
 804a451:	4c                   	dec    %esp
 804a452:	54                   	push   %esp
 804a453:	5f                   	pop    %edi
 804a454:	53                   	push   %ebx
 804a455:	54                   	push   %esp
 804a456:	52                   	push   %edx
 804a457:	49                   	dec    %ecx
 804a458:	4e                   	dec    %esi
 804a459:	47                   	inc    %edi
 804a45a:	3d 25 73 0a 00       	cmp    $0xa7325,%eax
 804a45f:	62 75 66             	bound  %esi,0x66(%ebp)
 804a462:	6c                   	insb   (%dx),%es:(%edi)
 804a463:	61                   	popa   
 804a464:	62 00                	bound  %eax,(%eax)
 804a466:	63 73 61             	arpl   %si,0x61(%ebx)
 804a469:	70 70                	jo     804a4db <trans_char+0x243>
 804a46b:	00 45 72             	add    %al,0x72(%ebp)
 804a46e:	72 6f                	jb     804a4df <trans_char+0x247>
 804a470:	72 3a                	jb     804a4ac <trans_char+0x214>
 804a472:	20 44 4e 53          	and    %al,0x53(%esi,%ecx,2)
 804a476:	20 75 6e             	and    %dh,0x6e(%ebp)
 804a479:	61                   	popa   
 804a47a:	62 6c 65 20          	bound  %ebp,0x20(%ebp,%eiz,2)
 804a47e:	74 6f                	je     804a4ef <trans_char+0x257>
 804a480:	20 72 65             	and    %dh,0x65(%edx)
 804a483:	73 6f                	jae    804a4f4 <trans_char+0x25c>
 804a485:	6c                   	insb   (%dx),%es:(%edi)
 804a486:	76 65                	jbe    804a4ed <trans_char+0x255>
 804a488:	20 61 64             	and    %ah,0x64(%ecx)
 804a48b:	64                   	fs
 804a48c:	72 65                	jb     804a4f3 <trans_char+0x25b>
 804a48e:	73 73                	jae    804a503 <trans_char+0x26b>
 804a490:	20 66 6f             	and    %ah,0x6f(%esi)
 804a493:	72 20                	jb     804a4b5 <trans_char+0x21d>
 804a495:	25 73 00 45 72       	and    $0x72450073,%eax
 804a49a:	72 6f                	jb     804a50b <trans_char+0x273>
 804a49c:	72 3a                	jb     804a4d8 <trans_char+0x240>
 804a49e:	20 55 6e             	and    %dl,0x6e(%ebp)
 804a4a1:	61                   	popa   
 804a4a2:	62 6c 65 20          	bound  %ebp,0x20(%ebp,%eiz,2)
 804a4a6:	74 6f                	je     804a517 <trans_char+0x27f>
 804a4a8:	20 63 6f             	and    %ah,0x6f(%ebx)
 804a4ab:	6e                   	outsb  %ds:(%esi),(%dx)
 804a4ac:	6e                   	outsb  %ds:(%esi),(%dx)
 804a4ad:	65 63 74 20 74       	arpl   %si,%gs:0x74(%eax,%eiz,1)
 804a4b2:	6f                   	outsl  %ds:(%esi),(%dx)
 804a4b3:	20 73 65             	and    %dh,0x65(%ebx)
 804a4b6:	72 76                	jb     804a52e <trans_char+0x296>
 804a4b8:	65                   	gs
 804a4b9:	72 20                	jb     804a4db <trans_char+0x243>
 804a4bb:	25 73 3a 25 64       	and    $0x64253a73,%eax
 804a4c0:	00 00                	add    %al,(%eax)
 804a4c2:	00 00                	add    %al,(%eax)
 804a4c4:	45                   	inc    %ebp
 804a4c5:	72 72                	jb     804a539 <trans_char+0x2a1>
 804a4c7:	6f                   	outsl  %ds:(%esi),(%dx)
 804a4c8:	72 3a                	jb     804a504 <trans_char+0x26c>
 804a4ca:	20 43 6c             	and    %al,0x6c(%ebx)
 804a4cd:	69 65 6e 74 20 75 6e 	imul   $0x6e752074,0x6e(%ebp),%esp
 804a4d4:	61                   	popa   
 804a4d5:	62 6c 65 20          	bound  %ebp,0x20(%ebp,%eiz,2)
 804a4d9:	74 6f                	je     804a54a <trans_char+0x2b2>
 804a4db:	20 63 72             	and    %ah,0x72(%ebx)
 804a4de:	65                   	gs
 804a4df:	61                   	popa   
 804a4e0:	74 65                	je     804a547 <trans_char+0x2af>
 804a4e2:	20 73 6f             	and    %dh,0x6f(%ebx)
 804a4e5:	63 6b 65             	arpl   %bp,0x65(%ebx)
 804a4e8:	74 00                	je     804a4ea <trans_char+0x252>
 804a4ea:	00 00                	add    %al,(%eax)
 804a4ec:	45                   	inc    %ebp
 804a4ed:	72 72                	jb     804a561 <trans_char+0x2c9>
 804a4ef:	6f                   	outsl  %ds:(%esi),(%dx)
 804a4f0:	72 3a                	jb     804a52c <trans_char+0x294>
 804a4f2:	20 55 6e             	and    %dl,0x6e(%ebp)
 804a4f5:	61                   	popa   
 804a4f6:	62 6c 65 20          	bound  %ebp,0x20(%ebp,%eiz,2)
 804a4fa:	74 6f                	je     804a56b <trans_char+0x2d3>
 804a4fc:	20 63 6f             	and    %ah,0x6f(%ebx)
 804a4ff:	6e                   	outsb  %ds:(%esi),(%dx)
 804a500:	6e                   	outsb  %ds:(%esi),(%dx)
 804a501:	65 63 74 20 74       	arpl   %si,%gs:0x74(%eax,%eiz,1)
 804a506:	6f                   	outsl  %ds:(%esi),(%dx)
 804a507:	20 73 65             	and    %dh,0x65(%ebx)
 804a50a:	72 76                	jb     804a582 <trans_char+0x2ea>
 804a50c:	65                   	gs
 804a50d:	72 20                	jb     804a52f <trans_char+0x297>
 804a50f:	25 73 00 00 00       	and    $0x73,%eax
 804a514:	45                   	inc    %ebp
 804a515:	72 72                	jb     804a589 <trans_char+0x2f1>
 804a517:	6f                   	outsl  %ds:(%esi),(%dx)
 804a518:	72 3a                	jb     804a554 <trans_char+0x2bc>
 804a51a:	20 52 65             	and    %dl,0x65(%edx)
 804a51d:	73 75                	jae    804a594 <trans_char+0x2fc>
 804a51f:	6c                   	insb   (%dx),%es:(%edi)
 804a520:	74 20                	je     804a542 <trans_char+0x2aa>
 804a522:	73 74                	jae    804a598 <trans_char+0x300>
 804a524:	72 69                	jb     804a58f <trans_char+0x2f7>
 804a526:	6e                   	outsb  %ds:(%esi),(%dx)
 804a527:	67 20 63 6f          	and    %ah,0x6f(%bp,%di)
 804a52b:	6e                   	outsb  %ds:(%esi),(%dx)
 804a52c:	74 61                	je     804a58f <trans_char+0x2f7>
 804a52e:	69 6e 73 20 61 6e 20 	imul   $0x206e6120,0x73(%esi),%ebp
 804a535:	69 6c 6c 65 67 61 6c 	imul   $0x206c6167,0x65(%esp,%ebp,2),%ebp
 804a53c:	20 
 804a53d:	6f                   	outsl  %ds:(%esi),(%dx)
 804a53e:	72 20                	jb     804a560 <trans_char+0x2c8>
 804a540:	75 6e                	jne    804a5b0 <trans_char+0x318>
 804a542:	70 72                	jo     804a5b6 <trans_char+0x31e>
 804a544:	69 6e 74 61 62 6c 65 	imul   $0x656c6261,0x74(%esi),%ebp
 804a54b:	20 63 68             	and    %ah,0x68(%ebx)
 804a54e:	61                   	popa   
 804a54f:	72 61                	jb     804a5b2 <trans_char+0x31a>
 804a551:	63 74 65 72          	arpl   %si,0x72(%ebp,%eiz,2)
 804a555:	2e 00 00             	add    %al,%cs:(%eax)
 804a558:	45                   	inc    %ebp
 804a559:	72 72                	jb     804a5cd <trans_char+0x335>
 804a55b:	6f                   	outsl  %ds:(%esi),(%dx)
 804a55c:	72 3a                	jb     804a598 <trans_char+0x300>
 804a55e:	20 43 6c             	and    %al,0x6c(%ebx)
 804a561:	69 65 6e 74 20 75 6e 	imul   $0x6e752074,0x6e(%ebp),%esp
 804a568:	61                   	popa   
 804a569:	62 6c 65 20          	bound  %ebp,0x20(%ebp,%eiz,2)
 804a56d:	74 6f                	je     804a5de <trans_char+0x346>
 804a56f:	20 77 72             	and    %dh,0x72(%edi)
 804a572:	69 74 65 20 74 6f 20 	imul   $0x74206f74,0x20(%ebp,%eiz,2),%esi
 804a579:	74 
 804a57a:	68 65 20 73 65       	push   $0x65732065
 804a57f:	72 76                	jb     804a5f7 <trans_char+0x35f>
 804a581:	65                   	gs
 804a582:	72 00                	jb     804a584 <trans_char+0x2ec>
 804a584:	45                   	inc    %ebp
 804a585:	72 72                	jb     804a5f9 <trans_char+0x361>
 804a587:	6f                   	outsl  %ds:(%esi),(%dx)
 804a588:	72 3a                	jb     804a5c4 <trans_char+0x32c>
 804a58a:	20 43 6c             	and    %al,0x6c(%ebx)
 804a58d:	69 65 6e 74 20 75 6e 	imul   $0x6e752074,0x6e(%ebp),%esp
 804a594:	61                   	popa   
 804a595:	62 6c 65 20          	bound  %ebp,0x20(%ebp,%eiz,2)
 804a599:	74 6f                	je     804a60a <trans_char+0x372>
 804a59b:	20 72 65             	and    %dh,0x65(%edx)
 804a59e:	61                   	popa   
 804a59f:	64 20 66 69          	and    %ah,%fs:0x69(%esi)
 804a5a3:	72 73                	jb     804a618 <trans_char+0x380>
 804a5a5:	74 20                	je     804a5c7 <trans_char+0x32f>
 804a5a7:	68 65 61 64 65       	push   $0x65646165
 804a5ac:	72 20                	jb     804a5ce <trans_char+0x336>
 804a5ae:	66                   	data16
 804a5af:	72 6f                	jb     804a620 <trans_char+0x388>
 804a5b1:	6d                   	insl   (%dx),%es:(%edi)
 804a5b2:	20 73 65             	and    %dh,0x65(%ebx)
 804a5b5:	72 76                	jb     804a62d <trans_char+0x395>
 804a5b7:	65                   	gs
 804a5b8:	72 00                	jb     804a5ba <trans_char+0x322>
 804a5ba:	00 00                	add    %al,(%eax)
 804a5bc:	45                   	inc    %ebp
 804a5bd:	72 72                	jb     804a631 <trans_char+0x399>
 804a5bf:	6f                   	outsl  %ds:(%esi),(%dx)
 804a5c0:	72 3a                	jb     804a5fc <trans_char+0x364>
 804a5c2:	20 48 54             	and    %cl,0x54(%eax)
 804a5c5:	54                   	push   %esp
 804a5c6:	50                   	push   %eax
 804a5c7:	20 72 65             	and    %dh,0x65(%edx)
 804a5ca:	71 75                	jno    804a641 <trans_char+0x3a9>
 804a5cc:	65                   	gs
 804a5cd:	73 74                	jae    804a643 <trans_char+0x3ab>
 804a5cf:	20 66 61             	and    %ah,0x61(%esi)
 804a5d2:	69 6c 65 64 20 77 69 	imul   $0x74697720,0x64(%ebp,%eiz,2),%ebp
 804a5d9:	74 
 804a5da:	68 20 65 72 72       	push   $0x72726520
 804a5df:	6f                   	outsl  %ds:(%esi),(%dx)
 804a5e0:	72 20                	jb     804a602 <trans_char+0x36a>
 804a5e2:	25 64 3a 20 25       	and    $0x25203a64,%eax
 804a5e7:	73 00                	jae    804a5e9 <trans_char+0x351>
 804a5e9:	00 00                	add    %al,(%eax)
 804a5eb:	00 45 72             	add    %al,0x72(%ebp)
 804a5ee:	72 6f                	jb     804a65f <trans_char+0x3c7>
 804a5f0:	72 3a                	jb     804a62c <trans_char+0x394>
 804a5f2:	20 43 6c             	and    %al,0x6c(%ebx)
 804a5f5:	69 65 6e 74 20 75 6e 	imul   $0x6e752074,0x6e(%ebp),%esp
 804a5fc:	61                   	popa   
 804a5fd:	62 6c 65 20          	bound  %ebp,0x20(%ebp,%eiz,2)
 804a601:	74 6f                	je     804a672 <trans_char+0x3da>
 804a603:	20 72 65             	and    %dh,0x65(%edx)
 804a606:	61                   	popa   
 804a607:	64 20 73 74          	and    %dh,%fs:0x74(%ebx)
 804a60b:	61                   	popa   
 804a60c:	74 75                	je     804a683 <trans_char+0x3eb>
 804a60e:	73 20                	jae    804a630 <trans_char+0x398>
 804a610:	6d                   	insl   (%dx),%es:(%edi)
 804a611:	65                   	gs
 804a612:	73 73                	jae    804a687 <trans_char+0x3ef>
 804a614:	61                   	popa   
 804a615:	67 65 20 66 72       	and    %ah,%gs:0x72(%bp)
 804a61a:	6f                   	outsl  %ds:(%esi),(%dx)
 804a61b:	6d                   	insl   (%dx),%es:(%edi)
 804a61c:	20 73 65             	and    %dh,0x65(%ebx)
 804a61f:	72 76                	jb     804a697 <__FRAME_END__+0x3>
 804a621:	65                   	gs
 804a622:	72 00                	jb     804a624 <trans_char+0x38c>
 804a624:	47                   	inc    %edi
 804a625:	45                   	inc    %ebp
 804a626:	54                   	push   %esp
 804a627:	20 2f                	and    %ch,(%edi)
 804a629:	25 73 2f 73 75       	and    $0x75732f73,%eax
 804a62e:	62 6d 69             	bound  %ebp,0x69(%ebp)
 804a631:	74 72                	je     804a6a5 <__FRAME_END__+0x11>
 804a633:	2e 70 6c             	jo,pn  804a6a2 <__FRAME_END__+0xe>
 804a636:	2f                   	das    
 804a637:	3f                   	aas    
 804a638:	75 73                	jne    804a6ad <__FRAME_END__+0x19>
 804a63a:	65                   	gs
 804a63b:	72 69                	jb     804a6a6 <__FRAME_END__+0x12>
 804a63d:	64                   	fs
 804a63e:	3d 25 73 26 6c       	cmp    $0x6c267325,%eax
 804a643:	61                   	popa   
 804a644:	62 3d 25 73 26 72    	bound  %edi,0x72267325
 804a64a:	65                   	gs
 804a64b:	73 75                	jae    804a6c2 <__FRAME_END__+0x2e>
 804a64d:	6c                   	insb   (%dx),%es:(%edi)
 804a64e:	74 3d                	je     804a68d <trans_char+0x3f5>
 804a650:	25 73 26 73 75       	and    $0x75732673,%eax
 804a655:	62 6d 69             	bound  %ebp,0x69(%ebp)
 804a658:	74 3d                	je     804a697 <__FRAME_END__+0x3>
 804a65a:	73 75                	jae    804a6d1 <__FRAME_END__+0x3d>
 804a65c:	62 6d 69             	bound  %ebp,0x69(%ebp)
 804a65f:	74 20                	je     804a681 <trans_char+0x3e9>
 804a661:	48                   	dec    %eax
 804a662:	54                   	push   %esp
 804a663:	54                   	push   %esp
 804a664:	50                   	push   %eax
 804a665:	2f                   	das    
 804a666:	31 2e                	xor    %ebp,(%esi)
 804a668:	30 0d 0a 0d 0a 00    	xor    %cl,0xa0d0a
 804a66e:	00 00                	add    %al,(%eax)
 804a670:	50                   	push   %eax
 804a671:	72 6f                	jb     804a6e2 <__FRAME_END__+0x4e>
 804a673:	67 72 61             	addr16 jb 804a6d7 <__FRAME_END__+0x43>
 804a676:	6d                   	insl   (%dx),%es:(%edi)
 804a677:	20 74 69 6d          	and    %dh,0x6d(%ecx,%ebp,2)
 804a67b:	65 64 20 6f 75       	gs and %ch,%fs:%gs:0x75(%edi)
 804a680:	74 20                	je     804a6a2 <__FRAME_END__+0xe>
 804a682:	61                   	popa   
 804a683:	66                   	data16
 804a684:	74 65                	je     804a6eb <__FRAME_END__+0x57>
 804a686:	72 20                	jb     804a6a8 <__FRAME_END__+0x14>
 804a688:	25 64 20 73 65       	and    $0x65732064,%eax
 804a68d:	63 6f 6e             	arpl   %bp,0x6e(%edi)
 804a690:	64                   	fs
 804a691:	73 0a                	jae    804a69d <__FRAME_END__+0x9>
	...

Disassembly of section .eh_frame:

0804a694 <__FRAME_END__>:
 804a694:	00 00                	add    %al,(%eax)
	...

Disassembly of section .ctors:

0804b000 <__CTOR_LIST__>:
 804b000:	ff                   	(bad)  
 804b001:	ff                   	(bad)  
 804b002:	ff                   	(bad)  
 804b003:	ff 00                	incl   (%eax)

0804b004 <__CTOR_END__>:
 804b004:	00 00                	add    %al,(%eax)
	...

Disassembly of section .dtors:

0804b008 <__DTOR_LIST__>:
 804b008:	ff                   	(bad)  
 804b009:	ff                   	(bad)  
 804b00a:	ff                   	(bad)  
 804b00b:	ff 00                	incl   (%eax)

0804b00c <__DTOR_END__>:
 804b00c:	00 00                	add    %al,(%eax)
	...

Disassembly of section .jcr:

0804b010 <__JCR_END__>:
 804b010:	00 00                	add    %al,(%eax)
	...

Disassembly of section .dynamic:

0804b014 <_DYNAMIC>:
 804b014:	01 00                	add    %eax,(%eax)
 804b016:	00 00                	add    %al,(%eax)
 804b018:	10 00                	adc    %al,(%eax)
 804b01a:	00 00                	add    %al,(%eax)
 804b01c:	0c 00                	or     $0x0,%al
 804b01e:	00 00                	add    %al,(%eax)
 804b020:	e0 87                	loopne 804afa9 <__FRAME_END__+0x915>
 804b022:	04 08                	add    $0x8,%al
 804b024:	0d 00 00 00 1c       	or     $0x1c000000,%eax
 804b029:	9f                   	lahf   
 804b02a:	04 08                	add    $0x8,%al
 804b02c:	04 00                	add    $0x0,%al
 804b02e:	00 00                	add    %al,(%eax)
 804b030:	68 81 04 08 05       	push   $0x5080481
 804b035:	00 00                	add    %al,(%eax)
 804b037:	00 10                	add    %dl,(%eax)
 804b039:	85 04 08             	test   %eax,(%eax,%ecx,1)
 804b03c:	06                   	push   %es
 804b03d:	00 00                	add    %al,(%eax)
 804b03f:	00 a0 82 04 08 0a    	add    %ah,0xa080482(%eax)
 804b045:	00 00                	add    %al,(%eax)
 804b047:	00 32                	add    %dh,(%edx)
 804b049:	01 00                	add    %eax,(%eax)
 804b04b:	00 0b                	add    %cl,(%ebx)
 804b04d:	00 00                	add    %al,(%eax)
 804b04f:	00 10                	add    %dl,(%eax)
 804b051:	00 00                	add    %al,(%eax)
 804b053:	00 15 00 00 00 00    	add    %dl,0x0
 804b059:	00 00                	add    %al,(%eax)
 804b05b:	00 03                	add    %al,(%ebx)
 804b05d:	00 00                	add    %al,(%eax)
 804b05f:	00 e0                	add    %ah,%al
 804b061:	b0 04                	mov    $0x4,%al
 804b063:	08 02                	or     %al,(%edx)
 804b065:	00 00                	add    %al,(%eax)
 804b067:	00 10                	add    %dl,(%eax)
 804b069:	01 00                	add    %eax,(%eax)
 804b06b:	00 14 00             	add    %dl,(%eax,%eax,1)
 804b06e:	00 00                	add    %al,(%eax)
 804b070:	11 00                	adc    %eax,(%eax)
 804b072:	00 00                	add    %al,(%eax)
 804b074:	17                   	pop    %ss
 804b075:	00 00                	add    %al,(%eax)
 804b077:	00 d0                	add    %dl,%al
 804b079:	86 04 08             	xchg   %al,(%eax,%ecx,1)
 804b07c:	11 00                	adc    %eax,(%eax)
 804b07e:	00 00                	add    %al,(%eax)
 804b080:	b0 86                	mov    $0x86,%al
 804b082:	04 08                	add    $0x8,%al
 804b084:	12 00                	adc    (%eax),%al
 804b086:	00 00                	add    %al,(%eax)
 804b088:	20 00                	and    %al,(%eax)
 804b08a:	00 00                	add    %al,(%eax)
 804b08c:	13 00                	adc    (%eax),%eax
 804b08e:	00 00                	add    %al,(%eax)
 804b090:	08 00                	or     %al,(%eax)
 804b092:	00 00                	add    %al,(%eax)
 804b094:	fe                   	(bad)  
 804b095:	ff                   	(bad)  
 804b096:	ff 6f 90             	ljmp   *-0x70(%edi)
 804b099:	86 04 08             	xchg   %al,(%eax,%ecx,1)
 804b09c:	ff                   	(bad)  
 804b09d:	ff                   	(bad)  
 804b09e:	ff 6f 01             	ljmp   *0x1(%edi)
 804b0a1:	00 00                	add    %al,(%eax)
 804b0a3:	00 f0                	add    %dh,%al
 804b0a5:	ff                   	(bad)  
 804b0a6:	ff 6f 42             	ljmp   *0x42(%edi)
 804b0a9:	86 04 08             	xchg   %al,(%eax,%ecx,1)
	...

Disassembly of section .got:

0804b0dc <.got>:
 804b0dc:	00 00                	add    %al,(%eax)
	...

Disassembly of section .got.plt:

0804b0e0 <_GLOBAL_OFFSET_TABLE_>:
 804b0e0:	14 b0                	adc    $0xb0,%al
 804b0e2:	04 08                	add    $0x8,%al
	...
 804b0ec:	26 88 04 08          	mov    %al,%es:(%eax,%ecx,1)
 804b0f0:	36 88 04 08          	mov    %al,%ss:(%eax,%ecx,1)
 804b0f4:	46                   	inc    %esi
 804b0f5:	88 04 08             	mov    %al,(%eax,%ecx,1)
 804b0f8:	56                   	push   %esi
 804b0f9:	88 04 08             	mov    %al,(%eax,%ecx,1)
 804b0fc:	66                   	data16
 804b0fd:	88 04 08             	mov    %al,(%eax,%ecx,1)
 804b100:	76 88                	jbe    804b08a <_DYNAMIC+0x76>
 804b102:	04 08                	add    $0x8,%al
 804b104:	86 88 04 08 96 88    	xchg   %cl,-0x7769f7fc(%eax)
 804b10a:	04 08                	add    $0x8,%al
 804b10c:	a6                   	cmpsb  %es:(%edi),%ds:(%esi)
 804b10d:	88 04 08             	mov    %al,(%eax,%ecx,1)
 804b110:	b6 88                	mov    $0x88,%dh
 804b112:	04 08                	add    $0x8,%al
 804b114:	c6                   	(bad)  
 804b115:	88 04 08             	mov    %al,(%eax,%ecx,1)
 804b118:	d6                   	(bad)  
 804b119:	88 04 08             	mov    %al,(%eax,%ecx,1)
 804b11c:	e6 88                	out    %al,$0x88
 804b11e:	04 08                	add    $0x8,%al
 804b120:	f6                   	(bad)  
 804b121:	88 04 08             	mov    %al,(%eax,%ecx,1)
 804b124:	06                   	push   %es
 804b125:	89 04 08             	mov    %eax,(%eax,%ecx,1)
 804b128:	16                   	push   %ss
 804b129:	89 04 08             	mov    %eax,(%eax,%ecx,1)
 804b12c:	26 89 04 08          	mov    %eax,%es:(%eax,%ecx,1)
 804b130:	36 89 04 08          	mov    %eax,%ss:(%eax,%ecx,1)
 804b134:	46                   	inc    %esi
 804b135:	89 04 08             	mov    %eax,(%eax,%ecx,1)
 804b138:	56                   	push   %esi
 804b139:	89 04 08             	mov    %eax,(%eax,%ecx,1)
 804b13c:	66 89 04 08          	mov    %ax,(%eax,%ecx,1)
 804b140:	76 89                	jbe    804b0cb <_DYNAMIC+0xb7>
 804b142:	04 08                	add    $0x8,%al
 804b144:	86 89 04 08 96 89    	xchg   %cl,-0x7669f7fc(%ecx)
 804b14a:	04 08                	add    $0x8,%al
 804b14c:	a6                   	cmpsb  %es:(%edi),%ds:(%esi)
 804b14d:	89 04 08             	mov    %eax,(%eax,%ecx,1)
 804b150:	b6 89                	mov    $0x89,%dh
 804b152:	04 08                	add    $0x8,%al
 804b154:	c6                   	(bad)  
 804b155:	89 04 08             	mov    %eax,(%eax,%ecx,1)
 804b158:	d6                   	(bad)  
 804b159:	89 04 08             	mov    %eax,(%eax,%ecx,1)
 804b15c:	e6 89                	out    %al,$0x89
 804b15e:	04 08                	add    $0x8,%al
 804b160:	f6                   	(bad)  
 804b161:	89 04 08             	mov    %eax,(%eax,%ecx,1)
 804b164:	06                   	push   %es
 804b165:	8a 04 08             	mov    (%eax,%ecx,1),%al
 804b168:	16                   	push   %ss
 804b169:	8a 04 08             	mov    (%eax,%ecx,1),%al
 804b16c:	26 8a 04 08          	mov    %es:(%eax,%ecx,1),%al
 804b170:	36 8a 04 08          	mov    %ss:(%eax,%ecx,1),%al

Disassembly of section .data:

0804b174 <__data_start>:
 804b174:	00 00                	add    %al,(%eax)
	...

0804b178 <__dso_handle>:
 804b178:	00 00                	add    %al,(%eax)
	...

0804b17c <level_counts>:
 804b17c:	01 00                	add    %eax,(%eax)
 804b17e:	00 00                	add    %al,(%eax)
 804b180:	01 00                	add    %eax,(%eax)
 804b182:	00 00                	add    %al,(%eax)
 804b184:	01 00                	add    %eax,(%eax)
 804b186:	00 00                	add    %al,(%eax)
 804b188:	01 00                	add    %eax,(%eax)
 804b18a:	00 00                	add    %al,(%eax)
 804b18c:	05                   	.byte 0x5
 804b18d:	00 00                	add    %al,(%eax)
	...

Disassembly of section .bss:

0804b1a0 <stderr@@GLIBC_2.0>:
 804b1a0:	00 00                	add    %al,(%eax)
	...

0804b1a4 <stdin@@GLIBC_2.0>:
 804b1a4:	00 00                	add    %al,(%eax)
	...

0804b1a8 <optarg@@GLIBC_2.0>:
 804b1a8:	00 00                	add    %al,(%eax)
	...

0804b1ac <completed.5877>:
 804b1ac:	00 00                	add    %al,(%eax)
	...

0804b1b0 <dtor_idx.5879>:
 804b1b0:	00 00                	add    %al,(%eax)
	...

0804b1b4 <userid>:
 804b1b4:	00 00                	add    %al,(%eax)
	...

0804b1b8 <notify>:
 804b1b8:	00 00                	add    %al,(%eax)
	...

0804b1bc <autograde>:
 804b1bc:	00 00                	add    %al,(%eax)
	...

0804b1c0 <infile>:
 804b1c0:	00 00                	add    %al,(%eax)
	...

0804b1c4 <cookie>:
 804b1c4:	00 00                	add    %al,(%eax)
	...

0804b1c8 <success>:
 804b1c8:	00 00                	add    %al,(%eax)
	...

0804b1cc <global_value>:
 804b1cc:	00 00                	add    %al,(%eax)
	...

0804b1d0 <gets_cnt>:
 804b1d0:	00 00                	add    %al,(%eax)
	...

0804b1d4 <global_nitro>:
 804b1d4:	00 00                	add    %al,(%eax)
	...

0804b1d8 <global_offset>:
 804b1d8:	00 00                	add    %al,(%eax)
	...

0804b1dc <global_save_stack>:
 804b1dc:	00 00                	add    %al,(%eax)
	...

0804b1e0 <host_table>:
	...

0804c1e0 <gets_buf>:
	...

0804cde4 <stack_top>:
 804cde4:	00 00                	add    %al,(%eax)
	...

Disassembly of section .comment:

00000000 <.comment>:
   0:	00 47 43             	add    %al,0x43(%edi)
   3:	43                   	inc    %ebx
   4:	3a 20                	cmp    (%eax),%ah
   6:	28 44 65 62          	sub    %al,0x62(%ebp,%eiz,2)
   a:	69 61 6e 20 34 2e 33 	imul   $0x332e3420,0x6e(%ecx),%esp
  11:	2e 32 2d 31 2e 31 29 	xor    %cs:0x29312e31,%ch
  18:	20 34 2e             	and    %dh,(%esi,%ebp,1)
  1b:	33 2e                	xor    (%esi),%ebp
  1d:	32 00                	xor    (%eax),%al
  1f:	00 47 43             	add    %al,0x43(%edi)
  22:	43                   	inc    %ebx
  23:	3a 20                	cmp    (%eax),%ah
  25:	28 44 65 62          	sub    %al,0x62(%ebp,%eiz,2)
  29:	69 61 6e 20 34 2e 33 	imul   $0x332e3420,0x6e(%ecx),%esp
  30:	2e 32 2d 31 2e 31 29 	xor    %cs:0x29312e31,%ch
  37:	20 34 2e             	and    %dh,(%esi,%ebp,1)
  3a:	33 2e                	xor    (%esi),%ebp
  3c:	32 00                	xor    (%eax),%al
  3e:	00 47 43             	add    %al,0x43(%edi)
  41:	43                   	inc    %ebx
  42:	3a 20                	cmp    (%eax),%ah
  44:	28 47 4e             	sub    %al,0x4e(%edi)
  47:	55                   	push   %ebp
  48:	29 20                	sub    %esp,(%eax)
  4a:	34 2e                	xor    $0x2e,%al
  4c:	34 2e                	xor    $0x2e,%al
  4e:	30 00                	xor    %al,(%eax)
  50:	00 47 43             	add    %al,0x43(%edi)
  53:	43                   	inc    %ebx
  54:	3a 20                	cmp    (%eax),%ah
  56:	28 47 4e             	sub    %al,0x4e(%edi)
  59:	55                   	push   %ebp
  5a:	29 20                	sub    %esp,(%eax)
  5c:	34 2e                	xor    $0x2e,%al
  5e:	34 2e                	xor    $0x2e,%al
  60:	30 00                	xor    %al,(%eax)
  62:	00 47 43             	add    %al,0x43(%edi)
  65:	43                   	inc    %ebx
  66:	3a 20                	cmp    (%eax),%ah
  68:	28 47 4e             	sub    %al,0x4e(%edi)
  6b:	55                   	push   %ebp
  6c:	29 20                	sub    %esp,(%eax)
  6e:	34 2e                	xor    $0x2e,%al
  70:	34 2e                	xor    $0x2e,%al
  72:	30 00                	xor    %al,(%eax)
  74:	00 47 43             	add    %al,0x43(%edi)
  77:	43                   	inc    %ebx
  78:	3a 20                	cmp    (%eax),%ah
  7a:	28 47 4e             	sub    %al,0x4e(%edi)
  7d:	55                   	push   %ebp
  7e:	29 20                	sub    %esp,(%eax)
  80:	34 2e                	xor    $0x2e,%al
  82:	34 2e                	xor    $0x2e,%al
  84:	30 00                	xor    %al,(%eax)
  86:	00 47 43             	add    %al,0x43(%edi)
  89:	43                   	inc    %ebx
  8a:	3a 20                	cmp    (%eax),%ah
  8c:	28 47 4e             	sub    %al,0x4e(%edi)
  8f:	55                   	push   %ebp
  90:	29 20                	sub    %esp,(%eax)
  92:	34 2e                	xor    $0x2e,%al
  94:	34 2e                	xor    $0x2e,%al
  96:	30 00                	xor    %al,(%eax)
  98:	00 47 43             	add    %al,0x43(%edi)
  9b:	43                   	inc    %ebx
  9c:	3a 20                	cmp    (%eax),%ah
  9e:	28 47 4e             	sub    %al,0x4e(%edi)
  a1:	55                   	push   %ebp
  a2:	29 20                	sub    %esp,(%eax)
  a4:	34 2e                	xor    $0x2e,%al
  a6:	34 2e                	xor    $0x2e,%al
  a8:	30 00                	xor    %al,(%eax)
  aa:	00 47 43             	add    %al,0x43(%edi)
  ad:	43                   	inc    %ebx
  ae:	3a 20                	cmp    (%eax),%ah
  b0:	28 44 65 62          	sub    %al,0x62(%ebp,%eiz,2)
  b4:	69 61 6e 20 34 2e 33 	imul   $0x332e3420,0x6e(%ecx),%esp
  bb:	2e 32 2d 31 2e 31 29 	xor    %cs:0x29312e31,%ch
  c2:	20 34 2e             	and    %dh,(%esi,%ebp,1)
  c5:	33 2e                	xor    (%esi),%ebp
  c7:	32 00                	xor    (%eax),%al
  c9:	00 47 43             	add    %al,0x43(%edi)
  cc:	43                   	inc    %ebx
  cd:	3a 20                	cmp    (%eax),%ah
  cf:	28 47 4e             	sub    %al,0x4e(%edi)
  d2:	55                   	push   %ebp
  d3:	29 20                	sub    %esp,(%eax)
  d5:	34 2e                	xor    $0x2e,%al
  d7:	34 2e                	xor    $0x2e,%al
  d9:	30 00                	xor    %al,(%eax)
  db:	00 47 43             	add    %al,0x43(%edi)
  de:	43                   	inc    %ebx
  df:	3a 20                	cmp    (%eax),%ah
  e1:	28 44 65 62          	sub    %al,0x62(%ebp,%eiz,2)
  e5:	69 61 6e 20 34 2e 33 	imul   $0x332e3420,0x6e(%ecx),%esp
  ec:	2e 32 2d 31 2e 31 29 	xor    %cs:0x29312e31,%ch
  f3:	20 34 2e             	and    %dh,(%esi,%ebp,1)
  f6:	33 2e                	xor    (%esi),%ebp
  f8:	32 00                	xor    (%eax),%al

Disassembly of section .debug_aranges:

00000000 <.debug_aranges>:
   0:	24 00                	and    $0x0,%al
   2:	00 00                	add    %al,(%eax)
   4:	02 00                	add    (%eax),%al
   6:	8d 00                	lea    (%eax),%eax
   8:	00 00                	add    %al,(%eax)
   a:	04 00                	add    $0x0,%al
   c:	00 00                	add    %al,(%eax)
   e:	00 00                	add    %al,(%eax)
  10:	e0 87                	loopne ffffff99 <_reserved+0xaaa79f99>
  12:	04 08                	add    $0x8,%al
  14:	22 00                	and    (%eax),%al
  16:	00 00                	add    %al,(%eax)
  18:	1c 9f                	sbb    $0x9f,%al
  1a:	04 08                	add    $0x8,%al
  1c:	13 00                	adc    (%eax),%eax
	...
  26:	00 00                	add    %al,(%eax)
  28:	24 00                	and    $0x0,%al
  2a:	00 00                	add    %al,(%eax)
  2c:	02 00                	add    (%eax),%al
  2e:	17                   	pop    %ss
  2f:	01 00                	add    %eax,(%eax)
  31:	00 04 00             	add    %al,(%eax,%eax,1)
  34:	00 00                	add    %al,(%eax)
  36:	00 00                	add    %al,(%eax)
  38:	0c 88                	or     $0x88,%al
  3a:	04 08                	add    $0x8,%al
  3c:	04 00                	add    $0x0,%al
  3e:	00 00                	add    %al,(%eax)
  40:	34 9f                	xor    $0x9f,%al
  42:	04 08                	add    $0x8,%al
  44:	04 00                	add    $0x0,%al
	...

Disassembly of section .debug_pubnames:

00000000 <.debug_pubnames>:
   0:	21 00                	and    %eax,(%eax)
   2:	00 00                	add    %al,(%eax)
   4:	02 00                	add    (%eax),%al
   6:	00 00                	add    %al,(%eax)
   8:	00 00                	add    %al,(%eax)
   a:	8d 00                	lea    (%eax),%eax
   c:	00 00                	add    %al,(%eax)
   e:	75 00                	jne    10 <_init-0x80487d0>
  10:	00 00                	add    %al,(%eax)
  12:	5f                   	pop    %edi
  13:	49                   	dec    %ecx
  14:	4f                   	dec    %edi
  15:	5f                   	pop    %edi
  16:	73 74                	jae    8c <_init-0x8048754>
  18:	64 69 6e 5f 75 73 65 	imul   $0x64657375,%fs:0x5f(%esi),%ebp
  1f:	64 
  20:	00 00                	add    %al,(%eax)
  22:	00 00                	add    %al,(%eax)
	...

Disassembly of section .debug_info:

00000000 <.debug_info>:
   0:	89 00                	mov    %eax,(%eax)
   2:	00 00                	add    %al,(%eax)
   4:	02 00                	add    (%eax),%al
   6:	00 00                	add    %al,(%eax)
   8:	00 00                	add    %al,(%eax)
   a:	04 01                	add    $0x1,%al
   c:	2f                   	das    
   d:	00 00                	add    %al,(%eax)
   f:	00 01                	add    %al,(%ecx)
  11:	8c 00                	mov    %es,(%eax)
  13:	00 00                	add    %al,(%eax)
  15:	00 00                	add    %al,(%eax)
  17:	00 00                	add    %al,(%eax)
  19:	64 8a 04 08          	mov    %fs:(%eax,%ecx,1),%al
  1d:	64 8a 04 08          	mov    %fs:(%eax,%ecx,1),%al
  21:	00 00                	add    %al,(%eax)
  23:	00 00                	add    %al,(%eax)
  25:	02 01                	add    (%ecx),%al
  27:	08 7e 00             	or     %bh,0x0(%esi)
  2a:	00 00                	add    %al,(%eax)
  2c:	02 02                	add    (%edx),%al
  2e:	07                   	pop    %es
  2f:	3b 00                	cmp    (%eax),%eax
  31:	00 00                	add    %al,(%eax)
  33:	02 04 07             	add    (%edi,%eax,1),%al
  36:	71 00                	jno    38 <_init-0x80487a8>
  38:	00 00                	add    %al,(%eax)
  3a:	02 04 07             	add    (%edi,%eax,1),%al
  3d:	6c                   	insb   (%dx),%es:(%edi)
  3e:	00 00                	add    %al,(%eax)
  40:	00 02                	add    %al,(%edx)
  42:	01 06                	add    %eax,(%esi)
  44:	80 00 00             	addb   $0x0,(%eax)
  47:	00 02                	add    %al,(%edx)
  49:	02 05 4e 00 00 00    	add    0x4e,%al
  4f:	03 04 05 69 6e 74 00 	add    0x746e69(,%eax,1),%eax
  56:	02 08                	add    (%eax),%cl
  58:	05 93 00 00 00       	add    $0x93,%eax
  5d:	02 08                	add    (%eax),%cl
  5f:	07                   	pop    %es
  60:	67 00 00             	add    %al,(%bx,%si)
  63:	00 02                	add    %al,(%edx)
  65:	04 05                	add    $0x5,%al
  67:	98                   	cwtl   
  68:	00 00                	add    %al,(%eax)
  6a:	00 04 04             	add    %al,(%esp,%eax,1)
  6d:	07                   	pop    %es
  6e:	02 01                	add    (%ecx),%al
  70:	06                   	push   %es
  71:	87 00                	xchg   %eax,(%eax)
  73:	00 00                	add    %al,(%eax)
  75:	05 58 00 00 00       	add    $0x58,%eax
  7a:	01 19                	add    %ebx,(%ecx)
  7c:	87 00                	xchg   %eax,(%eax)
  7e:	00 00                	add    %al,(%eax)
  80:	01 05 03 3c 9f 04    	add    %eax,0x49f3c03
  86:	08 06                	or     %al,(%esi)
  88:	4f                   	dec    %edi
  89:	00 00                	add    %al,(%eax)
  8b:	00 00                	add    %al,(%eax)
  8d:	86 00                	xchg   %al,(%eax)
  8f:	00 00                	add    %al,(%eax)
  91:	02 00                	add    (%eax),%al
  93:	4b                   	dec    %ebx
  94:	00 00                	add    %al,(%eax)
  96:	00 04 01             	add    %al,(%ecx,%eax,1)
  99:	27                   	daa    
  9a:	00 00                	add    %al,(%eax)
  9c:	00 00                	add    %al,(%eax)
  9e:	00 00                	add    %al,(%eax)
  a0:	00 2f                	add    %ch,(%edi)
  a2:	74 6d                	je     111 <_init-0x80486cf>
  a4:	70 2f                	jo     d5 <_init-0x804870b>
  a6:	62 75 69             	bound  %esi,0x69(%ebp)
  a9:	6c                   	insb   (%dx),%es:(%edi)
  aa:	64                   	fs
  ab:	64                   	fs
  ac:	2f                   	das    
  ad:	67 6c                	insb   (%dx),%es:(%di)
  af:	69 62 63 2d 32 2e 37 	imul   $0x372e322d,0x63(%edx),%esp
  b6:	2f                   	das    
  b7:	62 75 69             	bound  %esi,0x69(%ebp)
  ba:	6c                   	insb   (%dx),%es:(%edi)
  bb:	64                   	fs
  bc:	2d 74 72 65 65       	sub    $0x65657274,%eax
  c1:	2f                   	das    
  c2:	61                   	popa   
  c3:	6d                   	insl   (%dx),%es:(%edi)
  c4:	64                   	fs
  c5:	36                   	ss
  c6:	34 2d                	xor    $0x2d,%al
  c8:	69 33 38 36 2f 63    	imul   $0x632f3638,(%ebx),%esi
  ce:	73 75                	jae    145 <_init-0x804869b>
  d0:	2f                   	das    
  d1:	63 72 74             	arpl   %si,0x74(%edx)
  d4:	69 2e 53 00 2f 74    	imul   $0x742f0053,(%esi),%ebp
  da:	6d                   	insl   (%dx),%es:(%edi)
  db:	70 2f                	jo     10c <_init-0x80486d4>
  dd:	62 75 69             	bound  %esi,0x69(%ebp)
  e0:	6c                   	insb   (%dx),%es:(%edi)
  e1:	64                   	fs
  e2:	64                   	fs
  e3:	2f                   	das    
  e4:	67 6c                	insb   (%dx),%es:(%di)
  e6:	69 62 63 2d 32 2e 37 	imul   $0x372e322d,0x63(%edx),%esp
  ed:	2f                   	das    
  ee:	62 75 69             	bound  %esi,0x69(%ebp)
  f1:	6c                   	insb   (%dx),%es:(%edi)
  f2:	64                   	fs
  f3:	2d 74 72 65 65       	sub    $0x65657274,%eax
  f8:	2f                   	das    
  f9:	67 6c                	insb   (%dx),%es:(%di)
  fb:	69 62 63 2d 32 2e 37 	imul   $0x372e322d,0x63(%edx),%esp
 102:	2f                   	das    
 103:	63 73 75             	arpl   %si,0x75(%ebx)
 106:	00 47 4e             	add    %al,0x4e(%edi)
 109:	55                   	push   %ebp
 10a:	20 41 53             	and    %al,0x53(%ecx)
 10d:	20 32                	and    %dh,(%edx)
 10f:	2e 31 38             	xor    %edi,%cs:(%eax)
 112:	2e 30 00             	xor    %al,%cs:(%eax)
 115:	01 80 5f 00 00 00    	add    %eax,0x5f(%eax)
 11b:	02 00                	add    (%eax),%al
 11d:	5d                   	pop    %ebp
 11e:	00 00                	add    %al,(%eax)
 120:	00 04 01             	add    %al,(%ecx,%eax,1)
 123:	d0 00                	rolb   (%eax)
 125:	00 00                	add    %al,(%eax)
 127:	20 00                	and    %al,(%eax)
 129:	00 00                	add    %al,(%eax)
 12b:	2f                   	das    
 12c:	74 6d                	je     19b <_init-0x8048645>
 12e:	70 2f                	jo     15f <_init-0x8048681>
 130:	63 63 66             	arpl   %sp,0x66(%ebx)
 133:	4a                   	dec    %edx
 134:	67 31 57 5a          	xor    %edx,0x5a(%bx)
 138:	2e 73 00             	jae,pn 13b <_init-0x80486a5>
 13b:	2f                   	das    
 13c:	74 6d                	je     1ab <_init-0x8048635>
 13e:	70 2f                	jo     16f <_init-0x8048671>
 140:	62 75 69             	bound  %esi,0x69(%ebp)
 143:	6c                   	insb   (%dx),%es:(%edi)
 144:	64                   	fs
 145:	64                   	fs
 146:	2f                   	das    
 147:	67 6c                	insb   (%dx),%es:(%di)
 149:	69 62 63 2d 32 2e 37 	imul   $0x372e322d,0x63(%edx),%esp
 150:	2f                   	das    
 151:	62 75 69             	bound  %esi,0x69(%ebp)
 154:	6c                   	insb   (%dx),%es:(%edi)
 155:	64                   	fs
 156:	2d 74 72 65 65       	sub    $0x65657274,%eax
 15b:	2f                   	das    
 15c:	67 6c                	insb   (%dx),%es:(%di)
 15e:	69 62 63 2d 32 2e 37 	imul   $0x372e322d,0x63(%edx),%esp
 165:	2f                   	das    
 166:	63 73 75             	arpl   %si,0x75(%ebx)
 169:	00 47 4e             	add    %al,0x4e(%edi)
 16c:	55                   	push   %ebp
 16d:	20 41 53             	and    %al,0x53(%ecx)
 170:	20 32                	and    %dh,(%edx)
 172:	2e 31 38             	xor    %edi,%cs:(%eax)
 175:	2e 30 00             	xor    %al,%cs:(%eax)
 178:	01                   	.byte 0x1
 179:	80                   	.byte 0x80

Disassembly of section .debug_abbrev:

00000000 <.debug_abbrev>:
   0:	01 11                	add    %edx,(%ecx)
   2:	01 25 0e 13 0b 03    	add    %esp,0x30b130e
   8:	0e                   	push   %cs
   9:	1b 0e                	sbb    (%esi),%ecx
   b:	11 01                	adc    %eax,(%ecx)
   d:	12 01                	adc    (%ecx),%al
   f:	10 06                	adc    %al,(%esi)
  11:	00 00                	add    %al,(%eax)
  13:	02 24 00             	add    (%eax,%eax,1),%ah
  16:	0b 0b                	or     (%ebx),%ecx
  18:	3e 0b 03             	or     %ds:(%ebx),%eax
  1b:	0e                   	push   %cs
  1c:	00 00                	add    %al,(%eax)
  1e:	03 24 00             	add    (%eax,%eax,1),%esp
  21:	0b 0b                	or     (%ebx),%ecx
  23:	3e 0b 03             	or     %ds:(%ebx),%eax
  26:	08 00                	or     %al,(%eax)
  28:	00 04 24             	add    %al,(%esp)
  2b:	00 0b                	add    %cl,(%ebx)
  2d:	0b 3e                	or     (%esi),%edi
  2f:	0b 00                	or     (%eax),%eax
  31:	00 05 34 00 03 0e    	add    %al,0xe030034
  37:	3a 0b                	cmp    (%ebx),%cl
  39:	3b 0b                	cmp    (%ebx),%ecx
  3b:	49                   	dec    %ecx
  3c:	13 3f                	adc    (%edi),%edi
  3e:	0c 02                	or     $0x2,%al
  40:	0a 00                	or     (%eax),%al
  42:	00 06                	add    %al,(%esi)
  44:	26 00 49 13          	add    %cl,%es:0x13(%ecx)
  48:	00 00                	add    %al,(%eax)
  4a:	00 01                	add    %al,(%ecx)
  4c:	11 00                	adc    %eax,(%eax)
  4e:	10 06                	adc    %al,(%esi)
  50:	55                   	push   %ebp
  51:	06                   	push   %es
  52:	03 08                	add    (%eax),%ecx
  54:	1b 08                	sbb    (%eax),%ecx
  56:	25 08 13 05 00       	and    $0x51308,%eax
  5b:	00 00                	add    %al,(%eax)
  5d:	01 11                	add    %edx,(%ecx)
  5f:	00 10                	add    %dl,(%eax)
  61:	06                   	push   %es
  62:	55                   	push   %ebp
  63:	06                   	push   %es
  64:	03 08                	add    (%eax),%ecx
  66:	1b 08                	sbb    (%eax),%ecx
  68:	25 08 13 05 00       	and    $0x51308,%eax
	...

Disassembly of section .debug_line:

00000000 <.debug_line>:
   0:	23 00                	and    (%eax),%eax
   2:	00 00                	add    %al,(%eax)
   4:	02 00                	add    (%eax),%al
   6:	1d 00 00 00 01       	sbb    $0x1000000,%eax
   b:	01 fb                	add    %edi,%ebx
   d:	0e                   	push   %cs
   e:	0d 00 01 01 01       	or     $0x1010100,%eax
  13:	01 00                	add    %eax,(%eax)
  15:	00 00                	add    %al,(%eax)
  17:	01 00                	add    %eax,(%eax)
  19:	00 01                	add    %al,(%ecx)
  1b:	00 69 6e             	add    %ch,0x6e(%ecx)
  1e:	69 74 2e 63 00 00 00 	imul   $0x0,0x63(%esi,%ebp,1),%esi
  25:	00 
  26:	00 a5 00 00 00 02    	add    %ah,0x2000000(%ebp)
  2c:	00 6e 00             	add    %ch,0x0(%esi)
  2f:	00 00                	add    %al,(%eax)
  31:	01 01                	add    %eax,(%ecx)
  33:	fb                   	sti    
  34:	0e                   	push   %cs
  35:	0d 00 01 01 01       	or     $0x1010100,%eax
  3a:	01 00                	add    %eax,(%eax)
  3c:	00 00                	add    %al,(%eax)
  3e:	01 00                	add    %eax,(%eax)
  40:	00 01                	add    %al,(%ecx)
  42:	2f                   	das    
  43:	74 6d                	je     b2 <_init-0x804872e>
  45:	70 2f                	jo     76 <_init-0x804876a>
  47:	62 75 69             	bound  %esi,0x69(%ebp)
  4a:	6c                   	insb   (%dx),%es:(%edi)
  4b:	64                   	fs
  4c:	64                   	fs
  4d:	2f                   	das    
  4e:	67 6c                	insb   (%dx),%es:(%di)
  50:	69 62 63 2d 32 2e 37 	imul   $0x372e322d,0x63(%edx),%esp
  57:	2f                   	das    
  58:	62 75 69             	bound  %esi,0x69(%ebp)
  5b:	6c                   	insb   (%dx),%es:(%edi)
  5c:	64                   	fs
  5d:	2d 74 72 65 65       	sub    $0x65657274,%eax
  62:	2f                   	das    
  63:	61                   	popa   
  64:	6d                   	insl   (%dx),%es:(%edi)
  65:	64                   	fs
  66:	36                   	ss
  67:	34 2d                	xor    $0x2d,%al
  69:	69 33 38 36 2f 63    	imul   $0x632f3638,(%ebx),%esi
  6f:	73 75                	jae    e6 <_init-0x80486fa>
  71:	00 2e                	add    %ch,(%esi)
  73:	2e                   	cs
  74:	2f                   	das    
  75:	73 79                	jae    f0 <_init-0x80486f0>
  77:	73 64                	jae    dd <_init-0x8048703>
  79:	65                   	gs
  7a:	70 73                	jo     ef <_init-0x80486f1>
  7c:	2f                   	das    
  7d:	67 65 6e             	outsb  %gs:(%si),(%dx)
  80:	65                   	gs
  81:	72 69                	jb     ec <_init-0x80486f4>
  83:	63 00                	arpl   %ax,(%eax)
  85:	00 63 72             	add    %ah,0x72(%ebx)
  88:	74 69                	je     f3 <_init-0x80486ed>
  8a:	2e                   	cs
  8b:	53                   	push   %ebx
  8c:	00 01                	add    %al,(%ecx)
  8e:	00 00                	add    %al,(%eax)
  90:	69 6e 69 74 66 69 6e 	imul   $0x6e696674,0x69(%esi),%ebp
  97:	69 2e 63 00 02 00    	imul   $0x20063,(%esi),%ebp
  9d:	00 00                	add    %al,(%eax)
  9f:	00 05 02 e0 87 04    	add    %al,0x487e002
  a5:	08 03                	or     %al,(%ebx)
  a7:	0e                   	push   %cs
  a8:	01 21                	add    %esp,(%ecx)
  aa:	2f                   	das    
  ab:	21 3d 5a 21 67 67    	and    %edi,0x6767215a
  b1:	2f                   	das    
  b2:	2f                   	das    
  b3:	02 05 00 01 01 04    	add    0x4010100,%al
  b9:	02 00                	add    (%eax),%al
  bb:	05 02 1c 9f 04       	add    $0x49f1c02,%eax
  c0:	08 03                	or     %al,(%ebx)
  c2:	ec                   	in     (%dx),%al
  c3:	00 01                	add    %al,(%ecx)
  c5:	21 2f                	and    %ebp,(%edi)
  c7:	21 3d 5a 21 02 06    	and    %edi,0x602215a
  cd:	00 01                	add    %al,(%ecx)
  cf:	01 50 00             	add    %edx,0x0(%eax)
  d2:	00 00                	add    %al,(%eax)
  d4:	02 00                	add    (%eax),%al
  d6:	26 00 00             	add    %al,%es:(%eax)
  d9:	00 01                	add    %al,(%ecx)
  db:	01 fb                	add    %edi,%ebx
  dd:	0e                   	push   %cs
  de:	0d 00 01 01 01       	or     $0x1010100,%eax
  e3:	01 00                	add    %eax,(%eax)
  e5:	00 00                	add    %al,(%eax)
  e7:	01 00                	add    %eax,(%eax)
  e9:	00 01                	add    %al,(%ecx)
  eb:	2f                   	das    
  ec:	74 6d                	je     15b <_init-0x8048685>
  ee:	70 00                	jo     f0 <_init-0x80486f0>
  f0:	00 63 63             	add    %ah,0x63(%ebx)
  f3:	66 4a                	dec    %dx
  f5:	67 31 57 5a          	xor    %edx,0x5a(%bx)
  f9:	2e 73 00             	jae,pn fc <_init-0x80486e4>
  fc:	01 00                	add    %eax,(%eax)
  fe:	00 00                	add    %al,(%eax)
 100:	00 05 02 0c 88 04    	add    %al,0x4880c02
 106:	08 03                	or     %al,(%ebx)
 108:	1f                   	pop    %ds
 109:	01 21                	add    %esp,(%ecx)
 10b:	21 21                	and    %esp,(%ecx)
 10d:	02 01                	add    (%ecx),%al
 10f:	00 01                	add    %al,(%ecx)
 111:	01 00                	add    %eax,(%eax)
 113:	05 02 34 9f 04       	add    $0x49f3402,%eax
 118:	08 03                	or     %al,(%ebx)
 11a:	2d 01 21 21 21       	sub    $0x21212101,%eax
 11f:	02 01                	add    (%ecx),%al
 121:	00 01                	add    %al,(%ecx)
 123:	01                   	.byte 0x1

Disassembly of section .debug_str:

00000000 <.debug_str>:
   0:	2f                   	das    
   1:	74 6d                	je     70 <_init-0x8048770>
   3:	70 2f                	jo     34 <_init-0x80487ac>
   5:	62 75 69             	bound  %esi,0x69(%ebp)
   8:	6c                   	insb   (%dx),%es:(%edi)
   9:	64                   	fs
   a:	64                   	fs
   b:	2f                   	das    
   c:	67 6c                	insb   (%dx),%es:(%di)
   e:	69 62 63 2d 32 2e 37 	imul   $0x372e322d,0x63(%edx),%esp
  15:	2f                   	das    
  16:	62 75 69             	bound  %esi,0x69(%ebp)
  19:	6c                   	insb   (%dx),%es:(%edi)
  1a:	64                   	fs
  1b:	2d 74 72 65 65       	sub    $0x65657274,%eax
  20:	2f                   	das    
  21:	67 6c                	insb   (%dx),%es:(%di)
  23:	69 62 63 2d 32 2e 37 	imul   $0x372e322d,0x63(%edx),%esp
  2a:	2f                   	das    
  2b:	63 73 75             	arpl   %si,0x75(%ebx)
  2e:	00 47 4e             	add    %al,0x4e(%edi)
  31:	55                   	push   %ebp
  32:	20 43 20             	and    %al,0x20(%ebx)
  35:	34 2e                	xor    $0x2e,%al
  37:	33 2e                	xor    (%esi),%ebp
  39:	32 00                	xor    (%eax),%al
  3b:	73 68                	jae    a5 <_init-0x804873b>
  3d:	6f                   	outsl  %ds:(%esi),(%dx)
  3e:	72 74                	jb     b4 <_init-0x804872c>
  40:	20 75 6e             	and    %dh,0x6e(%ebp)
  43:	73 69                	jae    ae <_init-0x8048732>
  45:	67 6e                	outsb  %ds:(%si),(%dx)
  47:	65 64 20 69 6e       	gs and %ch,%fs:%gs:0x6e(%ecx)
  4c:	74 00                	je     4e <_init-0x8048792>
  4e:	73 68                	jae    b8 <_init-0x8048728>
  50:	6f                   	outsl  %ds:(%esi),(%dx)
  51:	72 74                	jb     c7 <_init-0x8048719>
  53:	20 69 6e             	and    %ch,0x6e(%ecx)
  56:	74 00                	je     58 <_init-0x8048788>
  58:	5f                   	pop    %edi
  59:	49                   	dec    %ecx
  5a:	4f                   	dec    %edi
  5b:	5f                   	pop    %edi
  5c:	73 74                	jae    d2 <_init-0x804870e>
  5e:	64 69 6e 5f 75 73 65 	imul   $0x64657375,%fs:0x5f(%esi),%ebp
  65:	64 
  66:	00 6c 6f 6e          	add    %ch,0x6e(%edi,%ebp,2)
  6a:	67 20 6c 6f          	and    %ch,0x6f(%si)
  6e:	6e                   	outsb  %ds:(%esi),(%dx)
  6f:	67 20 75 6e          	and    %dh,0x6e(%di)
  73:	73 69                	jae    de <_init-0x8048702>
  75:	67 6e                	outsb  %ds:(%si),(%dx)
  77:	65 64 20 69 6e       	gs and %ch,%fs:%gs:0x6e(%ecx)
  7c:	74 00                	je     7e <_init-0x8048762>
  7e:	75 6e                	jne    ee <_init-0x80486f2>
  80:	73 69                	jae    eb <_init-0x80486f5>
  82:	67 6e                	outsb  %ds:(%si),(%dx)
  84:	65 64 20 63 68       	gs and %ah,%fs:%gs:0x68(%ebx)
  89:	61                   	popa   
  8a:	72 00                	jb     8c <_init-0x8048754>
  8c:	69 6e 69 74 2e 63 00 	imul   $0x632e74,0x69(%esi),%ebp
  93:	6c                   	insb   (%dx),%es:(%edi)
  94:	6f                   	outsl  %ds:(%esi),(%dx)
  95:	6e                   	outsb  %ds:(%esi),(%dx)
  96:	67 20 6c 6f          	and    %ch,0x6f(%si)
  9a:	6e                   	outsb  %ds:(%esi),(%dx)
  9b:	67 20 69 6e          	and    %ch,0x6e(%bx,%di)
  9f:	74 00                	je     a1 <_init-0x804873f>

Disassembly of section .debug_ranges:

00000000 <.debug_ranges>:
   0:	ff                   	(bad)  
   1:	ff                   	(bad)  
   2:	ff                   	(bad)  
   3:	ff 00                	incl   (%eax)
   5:	00 00                	add    %al,(%eax)
   7:	00 e0                	add    %ah,%al
   9:	87 04 08             	xchg   %eax,(%eax,%ecx,1)
   c:	02 88 04 08 1c 9f    	add    -0x60e3f7fc(%eax),%cl
  12:	04 08                	add    $0x8,%al
  14:	2f                   	das    
  15:	9f                   	lahf   
  16:	04 08                	add    $0x8,%al
	...
  20:	ff                   	(bad)  
  21:	ff                   	(bad)  
  22:	ff                   	(bad)  
  23:	ff 00                	incl   (%eax)
  25:	00 00                	add    %al,(%eax)
  27:	00 0c 88             	add    %cl,(%eax,%ecx,4)
  2a:	04 08                	add    $0x8,%al
  2c:	10 88 04 08 34 9f    	adc    %cl,-0x60cbf7fc(%eax)
  32:	04 08                	add    $0x8,%al
  34:	38 9f 04 08 00 00    	cmp    %bl,0x804(%edi)
  3a:	00 00                	add    %al,(%eax)
  3c:	00 00                	add    %al,(%eax)
	...
